
/home/ssf/rCore-Tutorial-Code-2022A/os8/target/riscv64gc-unknown-none-elf/release/os:     file format elf64-littleriscv


Disassembly of section .text:

0000000080200000 <_start>:
    80200000:	00048117          	auipc	sp,0x48
    80200004:	00010113          	mv	sp,sp
    80200008:	0000f097          	auipc	ra,0xf
    8020000c:	fe8080e7          	jalr	-24(ra) # 8020eff0 <rust_main>
	...

0000000080201000 <__alltraps>:
    80201000:	14011173          	csrrw	sp,sscratch,sp
    80201004:	e406                	sd	ra,8(sp)
    80201006:	ec0e                	sd	gp,24(sp)
    80201008:	f416                	sd	t0,40(sp)
    8020100a:	f81a                	sd	t1,48(sp)
    8020100c:	fc1e                	sd	t2,56(sp)
    8020100e:	e0a2                	sd	s0,64(sp)
    80201010:	e4a6                	sd	s1,72(sp)
    80201012:	e8aa                	sd	a0,80(sp)
    80201014:	ecae                	sd	a1,88(sp)
    80201016:	f0b2                	sd	a2,96(sp)
    80201018:	f4b6                	sd	a3,104(sp)
    8020101a:	f8ba                	sd	a4,112(sp)
    8020101c:	fcbe                	sd	a5,120(sp)
    8020101e:	e142                	sd	a6,128(sp)
    80201020:	e546                	sd	a7,136(sp)
    80201022:	e94a                	sd	s2,144(sp)
    80201024:	ed4e                	sd	s3,152(sp)
    80201026:	f152                	sd	s4,160(sp)
    80201028:	f556                	sd	s5,168(sp)
    8020102a:	f95a                	sd	s6,176(sp)
    8020102c:	fd5e                	sd	s7,184(sp)
    8020102e:	e1e2                	sd	s8,192(sp)
    80201030:	e5e6                	sd	s9,200(sp)
    80201032:	e9ea                	sd	s10,208(sp)
    80201034:	edee                	sd	s11,216(sp)
    80201036:	f1f2                	sd	t3,224(sp)
    80201038:	f5f6                	sd	t4,232(sp)
    8020103a:	f9fa                	sd	t5,240(sp)
    8020103c:	fdfe                	sd	t6,248(sp)
    8020103e:	100022f3          	csrr	t0,sstatus
    80201042:	14102373          	csrr	t1,sepc
    80201046:	e216                	sd	t0,256(sp)
    80201048:	e61a                	sd	t1,264(sp)
    8020104a:	140023f3          	csrr	t2,sscratch
    8020104e:	e81e                	sd	t2,16(sp)
    80201050:	62d2                	ld	t0,272(sp)
    80201052:	7312                	ld	t1,288(sp)
    80201054:	6172                	ld	sp,280(sp)
    80201056:	18029073          	csrw	satp,t0
    8020105a:	12000073          	sfence.vma
    8020105e:	8302                	jr	t1

0000000080201060 <__restore>:
    80201060:	18059073          	csrw	satp,a1
    80201064:	12000073          	sfence.vma
    80201068:	14051073          	csrw	sscratch,a0
    8020106c:	812a                	mv	sp,a0
    8020106e:	6292                	ld	t0,256(sp)
    80201070:	6332                	ld	t1,264(sp)
    80201072:	10029073          	csrw	sstatus,t0
    80201076:	14131073          	csrw	sepc,t1
    8020107a:	60a2                	ld	ra,8(sp)
    8020107c:	61e2                	ld	gp,24(sp)
    8020107e:	72a2                	ld	t0,40(sp)
    80201080:	7342                	ld	t1,48(sp)
    80201082:	73e2                	ld	t2,56(sp)
    80201084:	6406                	ld	s0,64(sp)
    80201086:	64a6                	ld	s1,72(sp)
    80201088:	6546                	ld	a0,80(sp)
    8020108a:	65e6                	ld	a1,88(sp)
    8020108c:	7606                	ld	a2,96(sp)
    8020108e:	76a6                	ld	a3,104(sp)
    80201090:	7746                	ld	a4,112(sp)
    80201092:	77e6                	ld	a5,120(sp)
    80201094:	680a                	ld	a6,128(sp)
    80201096:	68aa                	ld	a7,136(sp)
    80201098:	694a                	ld	s2,144(sp)
    8020109a:	69ea                	ld	s3,152(sp)
    8020109c:	7a0a                	ld	s4,160(sp)
    8020109e:	7aaa                	ld	s5,168(sp)
    802010a0:	7b4a                	ld	s6,176(sp)
    802010a2:	7bea                	ld	s7,184(sp)
    802010a4:	6c0e                	ld	s8,192(sp)
    802010a6:	6cae                	ld	s9,200(sp)
    802010a8:	6d4e                	ld	s10,208(sp)
    802010aa:	6dee                	ld	s11,216(sp)
    802010ac:	7e0e                	ld	t3,224(sp)
    802010ae:	7eae                	ld	t4,232(sp)
    802010b0:	7f4e                	ld	t5,240(sp)
    802010b2:	7fee                	ld	t6,248(sp)
    802010b4:	6142                	ld	sp,16(sp)
    802010b6:	10200073          	sret
	...

0000000080202000 <_ZN5alloc11collections5btree4node210Handle$LT$alloc..collections..btree..node..NodeRef$LT$alloc..collections..btree..node..marker..Mut$C$K$C$V$C$alloc..collections..btree..node..marker..Leaf$GT$$C$alloc..collections..btree..node..marker..Edge$GT$16insert_recursing17h0b743c0fa8dfa6d4E>:
    80202000:	7155                	addi	sp,sp,-208
    80202002:	e586                	sd	ra,200(sp)
    80202004:	e1a2                	sd	s0,192(sp)
    80202006:	fd26                	sd	s1,184(sp)
    80202008:	f94a                	sd	s2,176(sp)
    8020200a:	f54e                	sd	s3,168(sp)
    8020200c:	f152                	sd	s4,160(sp)
    8020200e:	ed56                	sd	s5,152(sp)
    80202010:	e95a                	sd	s6,144(sp)
    80202012:	e55e                	sd	s7,136(sp)
    80202014:	e162                	sd	s8,128(sp)
    80202016:	fce6                	sd	s9,120(sp)
    80202018:	f8ea                	sd	s10,112(sp)
    8020201a:	f4ee                	sd	s11,104(sp)
    8020201c:	0980                	addi	s0,sp,208
    8020201e:	872e                	mv	a4,a1
    80202020:	6584                	ld	s1,8(a1)
    80202022:	0ba4d983          	lhu	s3,186(s1)
    80202026:	698c                	ld	a1,16(a1)
    80202028:	47ad                	li	a5,11
    8020202a:	8c36                	mv	s8,a3
    8020202c:	8d32                	mv	s10,a2
    8020202e:	8baa                	mv	s7,a0
    80202030:	00f9ff63          	bgeu	s3,a5,8020204e <_ZN5alloc11collections5btree4node210Handle$LT$alloc..collections..btree..node..NodeRef$LT$alloc..collections..btree..node..marker..Mut$C$K$C$V$C$alloc..collections..btree..node..marker..Leaf$GT$$C$alloc..collections..btree..node..marker..Edge$GT$16insert_recursing17h0b743c0fa8dfa6d4E+0x4e>
    80202034:	00848513          	addi	a0,s1,8
    80202038:	00158613          	addi	a2,a1,1
    8020203c:	00359b13          	slli	s6,a1,0x3
    80202040:	01650933          	add	s2,a0,s6
    80202044:	0ec9f363          	bgeu	s3,a2,8020212a <_ZN5alloc11collections5btree4node210Handle$LT$alloc..collections..btree..node..NodeRef$LT$alloc..collections..btree..node..marker..Mut$C$K$C$V$C$alloc..collections..btree..node..marker..Leaf$GT$$C$alloc..collections..btree..node..marker..Edge$GT$16insert_recursing17h0b743c0fa8dfa6d4E+0x12a>
    80202048:	01a93023          	sd	s10,0(s2)
    8020204c:	aa01                	j	8020215c <_ZN5alloc11collections5btree4node210Handle$LT$alloc..collections..btree..node..NodeRef$LT$alloc..collections..btree..node..marker..Mut$C$K$C$V$C$alloc..collections..btree..node..marker..Leaf$GT$$C$alloc..collections..btree..node..marker..Edge$GT$16insert_recursing17h0b743c0fa8dfa6d4E+0x15c>
    8020204e:	f5743023          	sd	s7,-192(s0)
    80202052:	00073b03          	ld	s6,0(a4)
    80202056:	f8040513          	addi	a0,s0,-128
    8020205a:	0001a097          	auipc	ra,0x1a
    8020205e:	db4080e7          	jalr	-588(ra) # 8021be0e <_ZN5alloc11collections5btree4node10splitpoint17hbfc66533d6122a33E>
    80202062:	f8043903          	ld	s2,-128(s0)
    80202066:	f8843c83          	ld	s9,-120(s0)
    8020206a:	f9043b83          	ld	s7,-112(s0)
    8020206e:	0c000513          	li	a0,192
    80202072:	45a1                	li	a1,8
    80202074:	00013097          	auipc	ra,0x13
    80202078:	660080e7          	jalr	1632(ra) # 802156d4 <__rust_alloc>
    8020207c:	4e050863          	beqz	a0,8020256c <.LBB47_57+0x14>
    80202080:	8aaa                	mv	s5,a0
    80202082:	00053023          	sd	zero,0(a0)
    80202086:	0ba4d603          	lhu	a2,186(s1)
    8020208a:	fff94513          	not	a0,s2
    8020208e:	9532                	add	a0,a0,a2
    80202090:	45b1                	li	a1,12
    80202092:	0aaa9d23          	sh	a0,186(s5)
    80202096:	48b57063          	bgeu	a0,a1,80202516 <.LBB47_54>
    8020209a:	00190593          	addi	a1,s2,1
    8020209e:	8e0d                	sub	a2,a2,a1
    802020a0:	44a61c63          	bne	a2,a0,802024f8 <.LBB47_52>
    802020a4:	f7a43023          	sd	s10,-160(s0)
    802020a8:	f7843c23          	sd	s8,-136(s0)
    802020ac:	00848693          	addi	a3,s1,8
    802020b0:	00391613          	slli	a2,s2,0x3
    802020b4:	00c68733          	add	a4,a3,a2
    802020b8:	6318                	ld	a4,0(a4)
    802020ba:	f6e43823          	sd	a4,-144(s0)
    802020be:	89a6                	mv	s3,s1
    802020c0:	06048a13          	addi	s4,s1,96
    802020c4:	9652                	add	a2,a2,s4
    802020c6:	6210                	ld	a2,0(a2)
    802020c8:	f6c43423          	sd	a2,-152(s0)
    802020cc:	008a8613          	addi	a2,s5,8
    802020d0:	00359493          	slli	s1,a1,0x3
    802020d4:	009685b3          	add	a1,a3,s1
    802020d8:	00351d13          	slli	s10,a0,0x3
    802020dc:	8532                	mv	a0,a2
    802020de:	866a                	mv	a2,s10
    802020e0:	0001d097          	auipc	ra,0x1d
    802020e4:	2ea080e7          	jalr	746(ra) # 8021f3ca <memcpy>
    802020e8:	009a05b3          	add	a1,s4,s1
    802020ec:	84ce                	mv	s1,s3
    802020ee:	060a8513          	addi	a0,s5,96
    802020f2:	866a                	mv	a2,s10
    802020f4:	0001d097          	auipc	ra,0x1d
    802020f8:	2d6080e7          	jalr	726(ra) # 8021f3ca <memcpy>
    802020fc:	0b299d23          	sh	s2,186(s3)
    80202100:	8c4e                	mv	s8,s3
    80202102:	000c8363          	beqz	s9,80202108 <_ZN5alloc11collections5btree4node210Handle$LT$alloc..collections..btree..node..NodeRef$LT$alloc..collections..btree..node..marker..Mut$C$K$C$V$C$alloc..collections..btree..node..marker..Leaf$GT$$C$alloc..collections..btree..node..marker..Edge$GT$16insert_recursing17h0b743c0fa8dfa6d4E+0x108>
    80202106:	8c56                	mv	s8,s5
    80202108:	0bac5d03          	lhu	s10,186(s8)
    8020210c:	008c0513          	addi	a0,s8,8
    80202110:	001b8593          	addi	a1,s7,1
    80202114:	003b9d93          	slli	s11,s7,0x3
    80202118:	01b50933          	add	s2,a0,s11
    8020211c:	04bd7d63          	bgeu	s10,a1,80202176 <_ZN5alloc11collections5btree4node210Handle$LT$alloc..collections..btree..node..NodeRef$LT$alloc..collections..btree..node..marker..Mut$C$K$C$V$C$alloc..collections..btree..node..marker..Leaf$GT$$C$alloc..collections..btree..node..marker..Edge$GT$16insert_recursing17h0b743c0fa8dfa6d4E+0x176>
    80202120:	f6043503          	ld	a0,-160(s0)
    80202124:	00a93023          	sd	a0,0(s2)
    80202128:	a059                	j	802021ae <_ZN5alloc11collections5btree4node210Handle$LT$alloc..collections..btree..node..NodeRef$LT$alloc..collections..btree..node..marker..Mut$C$K$C$V$C$alloc..collections..btree..node..marker..Leaf$GT$$C$alloc..collections..btree..node..marker..Edge$GT$16insert_recursing17h0b743c0fa8dfa6d4E+0x1ae>
    8020212a:	00361a13          	slli	s4,a2,0x3
    8020212e:	9552                	add	a0,a0,s4
    80202130:	40b985b3          	sub	a1,s3,a1
    80202134:	00359a93          	slli	s5,a1,0x3
    80202138:	85ca                	mv	a1,s2
    8020213a:	8656                	mv	a2,s5
    8020213c:	0001d097          	auipc	ra,0x1d
    80202140:	fc4080e7          	jalr	-60(ra) # 8021f100 <memmove>
    80202144:	01a93023          	sd	s10,0(s2)
    80202148:	06048513          	addi	a0,s1,96
    8020214c:	016505b3          	add	a1,a0,s6
    80202150:	9552                	add	a0,a0,s4
    80202152:	8656                	mv	a2,s5
    80202154:	0001d097          	auipc	ra,0x1d
    80202158:	fac080e7          	jalr	-84(ra) # 8021f100 <memmove>
    8020215c:	4a81                	li	s5,0
    8020215e:	01648533          	add	a0,s1,s6
    80202162:	0019859b          	addiw	a1,s3,1
    80202166:	07853023          	sd	s8,96(a0)
    8020216a:	06050613          	addi	a2,a0,96
    8020216e:	0ab49d23          	sh	a1,186(s1)
    80202172:	4561                	li	a0,24
    80202174:	ac61                	j	8020240c <_ZN5alloc11collections5btree4node210Handle$LT$alloc..collections..btree..node..NodeRef$LT$alloc..collections..btree..node..marker..Mut$C$K$C$V$C$alloc..collections..btree..node..marker..Leaf$GT$$C$alloc..collections..btree..node..marker..Edge$GT$16insert_recursing17h0b743c0fa8dfa6d4E+0x40c>
    80202176:	00359a13          	slli	s4,a1,0x3
    8020217a:	9552                	add	a0,a0,s4
    8020217c:	417d05b3          	sub	a1,s10,s7
    80202180:	00359c93          	slli	s9,a1,0x3
    80202184:	85ca                	mv	a1,s2
    80202186:	8666                	mv	a2,s9
    80202188:	0001d097          	auipc	ra,0x1d
    8020218c:	f78080e7          	jalr	-136(ra) # 8021f100 <memmove>
    80202190:	f6043503          	ld	a0,-160(s0)
    80202194:	00a93023          	sd	a0,0(s2)
    80202198:	060c0513          	addi	a0,s8,96
    8020219c:	01b505b3          	add	a1,a0,s11
    802021a0:	9552                	add	a0,a0,s4
    802021a2:	84ce                	mv	s1,s3
    802021a4:	8666                	mv	a2,s9
    802021a6:	0001d097          	auipc	ra,0x1d
    802021aa:	f5a080e7          	jalr	-166(ra) # 8021f100 <memmove>
    802021ae:	f7043683          	ld	a3,-144(s0)
    802021b2:	01bc05b3          	add	a1,s8,s11
    802021b6:	001d051b          	addiw	a0,s10,1
    802021ba:	f7843603          	ld	a2,-136(s0)
    802021be:	f1b0                	sd	a2,96(a1)
    802021c0:	0aac1d23          	sh	a0,186(s8)
    802021c4:	6088                	ld	a0,0(s1)
    802021c6:	06058593          	addi	a1,a1,96
    802021ca:	f2b43c23          	sd	a1,-200(s0)
    802021ce:	20050c63          	beqz	a0,802023e6 <_ZN5alloc11collections5btree4node210Handle$LT$alloc..collections..btree..node..NodeRef$LT$alloc..collections..btree..node..marker..Mut$C$K$C$V$C$alloc..collections..btree..node..marker..Leaf$GT$$C$alloc..collections..btree..node..marker..Edge$GT$16insert_recursing17h0b743c0fa8dfa6d4E+0x3e6>
    802021d2:	4601                	li	a2,0
    802021d4:	87b6                	mv	a5,a3
    802021d6:	f6843c83          	ld	s9,-152(s0)
    802021da:	89da                	mv	s3,s6
    802021dc:	85a6                	mv	a1,s1
    802021de:	8c56                	mv	s8,s5
    802021e0:	a005                	j	80202200 <_ZN5alloc11collections5btree4node210Handle$LT$alloc..collections..btree..node..NodeRef$LT$alloc..collections..btree..node..marker..Mut$C$K$C$V$C$alloc..collections..btree..node..marker..Leaf$GT$$C$alloc..collections..btree..node..marker..Edge$GT$16insert_recursing17h0b743c0fa8dfa6d4E+0x200>
    802021e2:	f4843483          	ld	s1,-184(s0)
    802021e6:	6088                	ld	a0,0(s1)
    802021e8:	f7043683          	ld	a3,-144(s0)
    802021ec:	87b6                	mv	a5,a3
    802021ee:	8cba                	mv	s9,a4
    802021f0:	85a6                	mv	a1,s1
    802021f2:	f7843983          	ld	s3,-136(s0)
    802021f6:	864e                	mv	a2,s3
    802021f8:	8c56                	mv	s8,s5
    802021fa:	8b4e                	mv	s6,s3
    802021fc:	1e050863          	beqz	a0,802023ec <_ZN5alloc11collections5btree4node210Handle$LT$alloc..collections..btree..node..NodeRef$LT$alloc..collections..btree..node..marker..Mut$C$K$C$V$C$alloc..collections..btree..node..marker..Leaf$GT$$C$alloc..collections..btree..node..marker..Edge$GT$16insert_recursing17h0b743c0fa8dfa6d4E+0x3ec>
    80202200:	32c99563          	bne	s3,a2,8020252a <.LBB47_55>
    80202204:	8a2a                	mv	s4,a0
    80202206:	f6f43023          	sd	a5,-160(s0)
    8020220a:	0ba55b83          	lhu	s7,186(a0)
    8020220e:	0b85d483          	lhu	s1,184(a1)
    80202212:	452d                	li	a0,11
    80202214:	22abe063          	bltu	s7,a0,80202434 <_ZN5alloc11collections5btree4node210Handle$LT$alloc..collections..btree..node..NodeRef$LT$alloc..collections..btree..node..marker..Mut$C$K$C$V$C$alloc..collections..btree..node..marker..Leaf$GT$$C$alloc..collections..btree..node..marker..Edge$GT$16insert_recursing17h0b743c0fa8dfa6d4E+0x434>
    80202218:	f8040513          	addi	a0,s0,-128
    8020221c:	85a6                	mv	a1,s1
    8020221e:	0001a097          	auipc	ra,0x1a
    80202222:	bf0080e7          	jalr	-1040(ra) # 8021be0e <_ZN5alloc11collections5btree4node10splitpoint17hbfc66533d6122a33E>
    80202226:	f8043d03          	ld	s10,-128(s0)
    8020222a:	f8843d83          	ld	s11,-120(s0)
    8020222e:	f9043b03          	ld	s6,-112(s0)
    80202232:	0baa5903          	lhu	s2,186(s4)
    80202236:	12000513          	li	a0,288
    8020223a:	45a1                	li	a1,8
    8020223c:	00013097          	auipc	ra,0x13
    80202240:	498080e7          	jalr	1176(ra) # 802156d4 <__rust_alloc>
    80202244:	30050263          	beqz	a0,80202548 <.LBB47_56+0x16>
    80202248:	8aaa                	mv	s5,a0
    8020224a:	00053023          	sd	zero,0(a0)
    8020224e:	0baa5603          	lhu	a2,186(s4)
    80202252:	fffd4513          	not	a0,s10
    80202256:	9532                	add	a0,a0,a2
    80202258:	0aaa9d23          	sh	a0,186(s5)
    8020225c:	45b1                	li	a1,12
    8020225e:	2ab57c63          	bgeu	a0,a1,80202516 <.LBB47_54>
    80202262:	f5943823          	sd	s9,-176(s0)
    80202266:	f7343c23          	sd	s3,-136(s0)
    8020226a:	f5843c23          	sd	s8,-168(s0)
    8020226e:	001d0593          	addi	a1,s10,1
    80202272:	8e0d                	sub	a2,a2,a1
    80202274:	28a61263          	bne	a2,a0,802024f8 <.LBB47_52>
    80202278:	008a0693          	addi	a3,s4,8
    8020227c:	003d1613          	slli	a2,s10,0x3
    80202280:	00c68733          	add	a4,a3,a2
    80202284:	00073983          	ld	s3,0(a4)
    80202288:	060a0493          	addi	s1,s4,96
    8020228c:	9626                	add	a2,a2,s1
    8020228e:	00063c03          	ld	s8,0(a2)
    80202292:	008a8613          	addi	a2,s5,8
    80202296:	00359c93          	slli	s9,a1,0x3
    8020229a:	019685b3          	add	a1,a3,s9
    8020229e:	00351b93          	slli	s7,a0,0x3
    802022a2:	8532                	mv	a0,a2
    802022a4:	865e                	mv	a2,s7
    802022a6:	0001d097          	auipc	ra,0x1d
    802022aa:	124080e7          	jalr	292(ra) # 8021f3ca <memcpy>
    802022ae:	019485b3          	add	a1,s1,s9
    802022b2:	060a8513          	addi	a0,s5,96
    802022b6:	865e                	mv	a2,s7
    802022b8:	0001d097          	auipc	ra,0x1d
    802022bc:	112080e7          	jalr	274(ra) # 8021f3ca <memcpy>
    802022c0:	0baa1d23          	sh	s10,186(s4)
    802022c4:	0baad483          	lhu	s1,186(s5)
    802022c8:	00148513          	addi	a0,s1,1
    802022cc:	45b1                	li	a1,12
    802022ce:	28b4f563          	bgeu	s1,a1,80202558 <.LBB47_57>
    802022d2:	41a90633          	sub	a2,s2,s10
    802022d6:	22a61163          	bne	a2,a0,802024f8 <.LBB47_52>
    802022da:	f7843503          	ld	a0,-136(s0)
    802022de:	0505                	addi	a0,a0,1
    802022e0:	f6a43c23          	sd	a0,-136(s0)
    802022e4:	019a0533          	add	a0,s4,s9
    802022e8:	0c050593          	addi	a1,a0,192
    802022ec:	0c0a8913          	addi	s2,s5,192
    802022f0:	060e                	slli	a2,a2,0x3
    802022f2:	854a                	mv	a0,s2
    802022f4:	0001d097          	auipc	ra,0x1d
    802022f8:	0d6080e7          	jalr	214(ra) # 8021f3ca <memcpy>
    802022fc:	4501                	li	a0,0
    802022fe:	00351593          	slli	a1,a0,0x3
    80202302:	95ca                	add	a1,a1,s2
    80202304:	618c                	ld	a1,0(a1)
    80202306:	00953633          	sltu	a2,a0,s1
    8020230a:	00164693          	xori	a3,a2,1
    8020230e:	0aa59c23          	sh	a0,184(a1)
    80202312:	9532                	add	a0,a0,a2
    80202314:	00a4b633          	sltu	a2,s1,a0
    80202318:	8e55                	or	a2,a2,a3
    8020231a:	0155b023          	sd	s5,0(a1)
    8020231e:	d265                	beqz	a2,802022fe <_ZN5alloc11collections5btree4node210Handle$LT$alloc..collections..btree..node..NodeRef$LT$alloc..collections..btree..node..marker..Mut$C$K$C$V$C$alloc..collections..btree..node..marker..Leaf$GT$$C$alloc..collections..btree..node..marker..Edge$GT$16insert_recursing17h0b743c0fa8dfa6d4E+0x2fe>
    80202320:	f7843423          	sd	s8,-152(s0)
    80202324:	f7343823          	sd	s3,-144(s0)
    80202328:	f5443423          	sd	s4,-184(s0)
    8020232c:	8bd2                	mv	s7,s4
    8020232e:	000d8363          	beqz	s11,80202334 <_ZN5alloc11collections5btree4node210Handle$LT$alloc..collections..btree..node..NodeRef$LT$alloc..collections..btree..node..marker..Mut$C$K$C$V$C$alloc..collections..btree..node..marker..Leaf$GT$$C$alloc..collections..btree..node..marker..Edge$GT$16insert_recursing17h0b743c0fa8dfa6d4E+0x334>
    80202332:	8bd6                	mv	s7,s5
    80202334:	0babda03          	lhu	s4,186(s7)
    80202338:	008b8c13          	addi	s8,s7,8
    8020233c:	001b0d93          	addi	s11,s6,1
    80202340:	003b1993          	slli	s3,s6,0x3
    80202344:	003d9d13          	slli	s10,s11,0x3
    80202348:	416a0cb3          	sub	s9,s4,s6
    8020234c:	03ba6763          	bltu	s4,s11,8020237a <_ZN5alloc11collections5btree4node210Handle$LT$alloc..collections..btree..node..NodeRef$LT$alloc..collections..btree..node..marker..Mut$C$K$C$V$C$alloc..collections..btree..node..marker..Leaf$GT$$C$alloc..collections..btree..node..marker..Edge$GT$16insert_recursing17h0b743c0fa8dfa6d4E+0x37a>
    80202350:	013c05b3          	add	a1,s8,s3
    80202354:	01ac0533          	add	a0,s8,s10
    80202358:	003c9913          	slli	s2,s9,0x3
    8020235c:	864a                	mv	a2,s2
    8020235e:	0001d097          	auipc	ra,0x1d
    80202362:	da2080e7          	jalr	-606(ra) # 8021f100 <memmove>
    80202366:	060b8513          	addi	a0,s7,96
    8020236a:	013505b3          	add	a1,a0,s3
    8020236e:	956a                	add	a0,a0,s10
    80202370:	864a                	mv	a2,s2
    80202372:	0001d097          	auipc	ra,0x1d
    80202376:	d8e080e7          	jalr	-626(ra) # 8021f100 <memmove>
    8020237a:	013c0533          	add	a0,s8,s3
    8020237e:	f6043583          	ld	a1,-160(s0)
    80202382:	e10c                	sd	a1,0(a0)
    80202384:	013b8933          	add	s2,s7,s3
    80202388:	f5043503          	ld	a0,-176(s0)
    8020238c:	06a93023          	sd	a0,96(s2)
    80202390:	002a0993          	addi	s3,s4,2
    80202394:	002b0513          	addi	a0,s6,2
    80202398:	0c0b8493          	addi	s1,s7,192
    8020239c:	01357c63          	bgeu	a0,s3,802023b4 <_ZN5alloc11collections5btree4node210Handle$LT$alloc..collections..btree..node..NodeRef$LT$alloc..collections..btree..node..marker..Mut$C$K$C$V$C$alloc..collections..btree..node..marker..Leaf$GT$$C$alloc..collections..btree..node..marker..Edge$GT$16insert_recursing17h0b743c0fa8dfa6d4E+0x3b4>
    802023a0:	01a485b3          	add	a1,s1,s10
    802023a4:	050e                	slli	a0,a0,0x3
    802023a6:	9526                	add	a0,a0,s1
    802023a8:	003c9613          	slli	a2,s9,0x3
    802023ac:	0001d097          	auipc	ra,0x1d
    802023b0:	d54080e7          	jalr	-684(ra) # 8021f100 <memmove>
    802023b4:	001a0513          	addi	a0,s4,1
    802023b8:	01a485b3          	add	a1,s1,s10
    802023bc:	f5843603          	ld	a2,-168(s0)
    802023c0:	e190                	sd	a2,0(a1)
    802023c2:	0aab9d23          	sh	a0,186(s7)
    802023c6:	f6843703          	ld	a4,-152(s0)
    802023ca:	e13dfce3          	bgeu	s11,s3,802021e2 <_ZN5alloc11collections5btree4node210Handle$LT$alloc..collections..btree..node..NodeRef$LT$alloc..collections..btree..node..marker..Mut$C$K$C$V$C$alloc..collections..btree..node..marker..Leaf$GT$$C$alloc..collections..btree..node..marker..Edge$GT$16insert_recursing17h0b743c0fa8dfa6d4E+0x1e2>
    802023ce:	0c890593          	addi	a1,s2,200
    802023d2:	6190                	ld	a2,0(a1)
    802023d4:	0b05                	addi	s6,s6,1
    802023d6:	01763023          	sd	s7,0(a2)
    802023da:	0b661c23          	sh	s6,184(a2)
    802023de:	05a1                	addi	a1,a1,8
    802023e0:	ff6519e3          	bne	a0,s6,802023d2 <_ZN5alloc11collections5btree4node210Handle$LT$alloc..collections..btree..node..NodeRef$LT$alloc..collections..btree..node..marker..Mut$C$K$C$V$C$alloc..collections..btree..node..marker..Leaf$GT$$C$alloc..collections..btree..node..marker..Edge$GT$16insert_recursing17h0b743c0fa8dfa6d4E+0x3d2>
    802023e4:	bbfd                	j	802021e2 <_ZN5alloc11collections5btree4node210Handle$LT$alloc..collections..btree..node..NodeRef$LT$alloc..collections..btree..node..marker..Mut$C$K$C$V$C$alloc..collections..btree..node..marker..Leaf$GT$$C$alloc..collections..btree..node..marker..Edge$GT$16insert_recursing17h0b743c0fa8dfa6d4E+0x1e2>
    802023e6:	4981                	li	s3,0
    802023e8:	f6843703          	ld	a4,-152(s0)
    802023ec:	f4043b83          	ld	s7,-192(s0)
    802023f0:	00dbb023          	sd	a3,0(s7)
    802023f4:	00ebb423          	sd	a4,8(s7)
    802023f8:	016bb823          	sd	s6,16(s7)
    802023fc:	009bbc23          	sd	s1,24(s7)
    80202400:	033bb023          	sd	s3,32(s7)
    80202404:	02800513          	li	a0,40
    80202408:	f3843603          	ld	a2,-200(s0)
    8020240c:	955e                	add	a0,a0,s7
    8020240e:	01553023          	sd	s5,0(a0)
    80202412:	02cbb823          	sd	a2,48(s7)
    80202416:	60ae                	ld	ra,200(sp)
    80202418:	640e                	ld	s0,192(sp)
    8020241a:	74ea                	ld	s1,184(sp)
    8020241c:	794a                	ld	s2,176(sp)
    8020241e:	79aa                	ld	s3,168(sp)
    80202420:	7a0a                	ld	s4,160(sp)
    80202422:	6aea                	ld	s5,152(sp)
    80202424:	6b4a                	ld	s6,144(sp)
    80202426:	6baa                	ld	s7,136(sp)
    80202428:	6c0a                	ld	s8,128(sp)
    8020242a:	7ce6                	ld	s9,120(sp)
    8020242c:	7d46                	ld	s10,112(sp)
    8020242e:	7da6                	ld	s11,104(sp)
    80202430:	6169                	addi	sp,sp,208
    80202432:	8082                	ret
    80202434:	001b8b13          	addi	s6,s7,1
    80202438:	008a0513          	addi	a0,s4,8
    8020243c:	00148613          	addi	a2,s1,1
    80202440:	00349d93          	slli	s11,s1,0x3
    80202444:	01b509b3          	add	s3,a0,s11
    80202448:	00361d13          	slli	s10,a2,0x3
    8020244c:	0574fe63          	bgeu	s1,s7,802024a8 <_ZN5alloc11collections5btree4node210Handle$LT$alloc..collections..btree..node..NodeRef$LT$alloc..collections..btree..node..marker..Mut$C$K$C$V$C$alloc..collections..btree..node..marker..Leaf$GT$$C$alloc..collections..btree..node..marker..Edge$GT$16insert_recursing17h0b743c0fa8dfa6d4E+0x4a8>
    80202450:	956a                	add	a0,a0,s10
    80202452:	409b85b3          	sub	a1,s7,s1
    80202456:	f6c43c23          	sd	a2,-136(s0)
    8020245a:	00359913          	slli	s2,a1,0x3
    8020245e:	85ce                	mv	a1,s3
    80202460:	864a                	mv	a2,s2
    80202462:	0001d097          	auipc	ra,0x1d
    80202466:	c9e080e7          	jalr	-866(ra) # 8021f100 <memmove>
    8020246a:	060a0513          	addi	a0,s4,96
    8020246e:	01b50ab3          	add	s5,a0,s11
    80202472:	956a                	add	a0,a0,s10
    80202474:	85d6                	mv	a1,s5
    80202476:	864a                	mv	a2,s2
    80202478:	0001d097          	auipc	ra,0x1d
    8020247c:	c88080e7          	jalr	-888(ra) # 8021f100 <memmove>
    80202480:	f6043503          	ld	a0,-160(s0)
    80202484:	00a9b023          	sd	a0,0(s3)
    80202488:	019ab023          	sd	s9,0(s5)
    8020248c:	0c0a0513          	addi	a0,s4,192
    80202490:	01a505b3          	add	a1,a0,s10
    80202494:	956e                	add	a0,a0,s11
    80202496:	0541                	addi	a0,a0,16
    80202498:	864a                	mv	a2,s2
    8020249a:	0001d097          	auipc	ra,0x1d
    8020249e:	c66080e7          	jalr	-922(ra) # 8021f100 <memmove>
    802024a2:	f7843603          	ld	a2,-136(s0)
    802024a6:	a809                	j	802024b8 <_ZN5alloc11collections5btree4node210Handle$LT$alloc..collections..btree..node..NodeRef$LT$alloc..collections..btree..node..marker..Mut$C$K$C$V$C$alloc..collections..btree..node..marker..Leaf$GT$$C$alloc..collections..btree..node..marker..Edge$GT$16insert_recursing17h0b743c0fa8dfa6d4E+0x4b8>
    802024a8:	f6043503          	ld	a0,-160(s0)
    802024ac:	00a9b023          	sd	a0,0(s3)
    802024b0:	01ba0533          	add	a0,s4,s11
    802024b4:	07953023          	sd	s9,96(a0)
    802024b8:	01aa0533          	add	a0,s4,s10
    802024bc:	002b8593          	addi	a1,s7,2
    802024c0:	0d853023          	sd	s8,192(a0)
    802024c4:	0b6a1d23          	sh	s6,186(s4)
    802024c8:	4561                	li	a0,24
    802024ca:	02b67363          	bgeu	a2,a1,802024f0 <_ZN5alloc11collections5btree4node210Handle$LT$alloc..collections..btree..node..NodeRef$LT$alloc..collections..btree..node..marker..Mut$C$K$C$V$C$alloc..collections..btree..node..marker..Leaf$GT$$C$alloc..collections..btree..node..marker..Edge$GT$16insert_recursing17h0b743c0fa8dfa6d4E+0x4f0>
    802024ce:	01ba05b3          	add	a1,s4,s11
    802024d2:	0c858593          	addi	a1,a1,200
    802024d6:	f4043b83          	ld	s7,-192(s0)
    802024da:	6190                	ld	a2,0(a1)
    802024dc:	0485                	addi	s1,s1,1
    802024de:	01463023          	sd	s4,0(a2)
    802024e2:	0a961c23          	sh	s1,184(a2)
    802024e6:	05a1                	addi	a1,a1,8
    802024e8:	fe9b19e3          	bne	s6,s1,802024da <_ZN5alloc11collections5btree4node210Handle$LT$alloc..collections..btree..node..NodeRef$LT$alloc..collections..btree..node..marker..Mut$C$K$C$V$C$alloc..collections..btree..node..marker..Leaf$GT$$C$alloc..collections..btree..node..marker..Edge$GT$16insert_recursing17h0b743c0fa8dfa6d4E+0x4da>
    802024ec:	4a81                	li	s5,0
    802024ee:	bf29                	j	80202408 <_ZN5alloc11collections5btree4node210Handle$LT$alloc..collections..btree..node..NodeRef$LT$alloc..collections..btree..node..marker..Mut$C$K$C$V$C$alloc..collections..btree..node..marker..Leaf$GT$$C$alloc..collections..btree..node..marker..Edge$GT$16insert_recursing17h0b743c0fa8dfa6d4E+0x408>
    802024f0:	4a81                	li	s5,0
    802024f2:	f4043b83          	ld	s7,-192(s0)
    802024f6:	bf09                	j	80202408 <_ZN5alloc11collections5btree4node210Handle$LT$alloc..collections..btree..node..NodeRef$LT$alloc..collections..btree..node..marker..Mut$C$K$C$V$C$alloc..collections..btree..node..marker..Leaf$GT$$C$alloc..collections..btree..node..marker..Edge$GT$16insert_recursing17h0b743c0fa8dfa6d4E+0x408>

00000000802024f8 <.LBB47_52>:
    802024f8:	0001e517          	auipc	a0,0x1e
    802024fc:	d2850513          	addi	a0,a0,-728 # 80220220 <.Lanon.d6099a4703f55f35884a06451ebc7765.14>

0000000080202500 <.LBB47_53>:
    80202500:	0001e617          	auipc	a2,0x1e
    80202504:	d4860613          	addi	a2,a2,-696 # 80220248 <.Lanon.d6099a4703f55f35884a06451ebc7765.15>
    80202508:	02800593          	li	a1,40
    8020250c:	0001a097          	auipc	ra,0x1a
    80202510:	c82080e7          	jalr	-894(ra) # 8021c18e <_ZN4core9panicking5panic17h183aba44d01f42adE>
	...

0000000080202516 <.LBB47_54>:
    80202516:	0001e617          	auipc	a2,0x1e
    8020251a:	d4a60613          	addi	a2,a2,-694 # 80220260 <.Lanon.d6099a4703f55f35884a06451ebc7765.16>
    8020251e:	45ad                	li	a1,11
    80202520:	0001b097          	auipc	ra,0x1b
    80202524:	568080e7          	jalr	1384(ra) # 8021da88 <_ZN4core5slice5index24slice_end_index_len_fail17he5846e131809ee70E>
	...

000000008020252a <.LBB47_55>:
    8020252a:	0001e517          	auipc	a0,0x1e
    8020252e:	d6650513          	addi	a0,a0,-666 # 80220290 <.Lanon.d6099a4703f55f35884a06451ebc7765.18>

0000000080202532 <.LBB47_56>:
    80202532:	0001e617          	auipc	a2,0x1e
    80202536:	d9660613          	addi	a2,a2,-618 # 802202c8 <.Lanon.d6099a4703f55f35884a06451ebc7765.19>
    8020253a:	03500593          	li	a1,53
    8020253e:	0001a097          	auipc	ra,0x1a
    80202542:	c50080e7          	jalr	-944(ra) # 8021c18e <_ZN4core9panicking5panic17h183aba44d01f42adE>
    80202546:	0000                	unimp
    80202548:	12000513          	li	a0,288
    8020254c:	45a1                	li	a1,8
    8020254e:	0001a097          	auipc	ra,0x1a
    80202552:	8a4080e7          	jalr	-1884(ra) # 8021bdf2 <_ZN5alloc5alloc18handle_alloc_error17h3b12d3b52c903b1cE>
	...

0000000080202558 <.LBB47_57>:
    80202558:	0001e617          	auipc	a2,0x1e
    8020255c:	d2060613          	addi	a2,a2,-736 # 80220278 <.Lanon.d6099a4703f55f35884a06451ebc7765.17>
    80202560:	45b1                	li	a1,12
    80202562:	0001b097          	auipc	ra,0x1b
    80202566:	526080e7          	jalr	1318(ra) # 8021da88 <_ZN4core5slice5index24slice_end_index_len_fail17he5846e131809ee70E>
    8020256a:	0000                	unimp
    8020256c:	0c000513          	li	a0,192
    80202570:	45a1                	li	a1,8
    80202572:	0001a097          	auipc	ra,0x1a
    80202576:	880080e7          	jalr	-1920(ra) # 8021bdf2 <_ZN5alloc5alloc18handle_alloc_error17h3b12d3b52c903b1cE>
	...

000000008020257c <_ZN5alloc11collections5btree4node210Handle$LT$alloc..collections..btree..node..NodeRef$LT$alloc..collections..btree..node..marker..Mut$C$K$C$V$C$alloc..collections..btree..node..marker..Leaf$GT$$C$alloc..collections..btree..node..marker..Edge$GT$16insert_recursing17h22f8a96345c00c1cE>:
    8020257c:	7131                	addi	sp,sp,-192
    8020257e:	fd06                	sd	ra,184(sp)
    80202580:	f922                	sd	s0,176(sp)
    80202582:	f526                	sd	s1,168(sp)
    80202584:	f14a                	sd	s2,160(sp)
    80202586:	ed4e                	sd	s3,152(sp)
    80202588:	e952                	sd	s4,144(sp)
    8020258a:	e556                	sd	s5,136(sp)
    8020258c:	e15a                	sd	s6,128(sp)
    8020258e:	fcde                	sd	s7,120(sp)
    80202590:	f8e2                	sd	s8,112(sp)
    80202592:	f4e6                	sd	s9,104(sp)
    80202594:	f0ea                	sd	s10,96(sp)
    80202596:	ecee                	sd	s11,88(sp)
    80202598:	0180                	addi	s0,sp,192
    8020259a:	872e                	mv	a4,a1
    8020259c:	0085bb83          	ld	s7,8(a1)
    802025a0:	0babd483          	lhu	s1,186(s7)
    802025a4:	698c                	ld	a1,16(a1)
    802025a6:	47ad                	li	a5,11
    802025a8:	8c36                	mv	s8,a3
    802025aa:	8cb2                	mv	s9,a2
    802025ac:	8b2a                	mv	s6,a0
    802025ae:	00f4ff63          	bgeu	s1,a5,802025cc <_ZN5alloc11collections5btree4node210Handle$LT$alloc..collections..btree..node..NodeRef$LT$alloc..collections..btree..node..marker..Mut$C$K$C$V$C$alloc..collections..btree..node..marker..Leaf$GT$$C$alloc..collections..btree..node..marker..Edge$GT$16insert_recursing17h22f8a96345c00c1cE+0x50>
    802025b2:	008b8513          	addi	a0,s7,8
    802025b6:	00158613          	addi	a2,a1,1
    802025ba:	00359993          	slli	s3,a1,0x3
    802025be:	01350933          	add	s2,a0,s3
    802025c2:	0cc4ff63          	bgeu	s1,a2,802026a0 <_ZN5alloc11collections5btree4node210Handle$LT$alloc..collections..btree..node..NodeRef$LT$alloc..collections..btree..node..marker..Mut$C$K$C$V$C$alloc..collections..btree..node..marker..Leaf$GT$$C$alloc..collections..btree..node..marker..Edge$GT$16insert_recursing17h22f8a96345c00c1cE+0x124>
    802025c6:	01993023          	sd	s9,0(s2)
    802025ca:	a221                	j	802026d2 <_ZN5alloc11collections5btree4node210Handle$LT$alloc..collections..btree..node..NodeRef$LT$alloc..collections..btree..node..marker..Mut$C$K$C$V$C$alloc..collections..btree..node..marker..Leaf$GT$$C$alloc..collections..btree..node..marker..Edge$GT$16insert_recursing17h22f8a96345c00c1cE+0x156>
    802025cc:	f5643423          	sd	s6,-184(s0)
    802025d0:	00073a03          	ld	s4,0(a4)
    802025d4:	f8040513          	addi	a0,s0,-128
    802025d8:	0001a097          	auipc	ra,0x1a
    802025dc:	836080e7          	jalr	-1994(ra) # 8021be0e <_ZN5alloc11collections5btree4node10splitpoint17hbfc66533d6122a33E>
    802025e0:	f8043903          	ld	s2,-128(s0)
    802025e4:	f8843b03          	ld	s6,-120(s0)
    802025e8:	f9043983          	ld	s3,-112(s0)
    802025ec:	0c000513          	li	a0,192
    802025f0:	45a1                	li	a1,8
    802025f2:	00013097          	auipc	ra,0x13
    802025f6:	0e2080e7          	jalr	226(ra) # 802156d4 <__rust_alloc>
    802025fa:	4c050963          	beqz	a0,80202acc <.LBB48_57+0x14>
    802025fe:	8aaa                	mv	s5,a0
    80202600:	00053023          	sd	zero,0(a0)
    80202604:	0babd603          	lhu	a2,186(s7)
    80202608:	fff94513          	not	a0,s2
    8020260c:	9532                	add	a0,a0,a2
    8020260e:	45b1                	li	a1,12
    80202610:	0aaa9d23          	sh	a0,186(s5)
    80202614:	46b57163          	bgeu	a0,a1,80202a76 <.LBB48_54>
    80202618:	f7943423          	sd	s9,-152(s0)
    8020261c:	f7843823          	sd	s8,-144(s0)
    80202620:	00190593          	addi	a1,s2,1
    80202624:	8e0d                	sub	a2,a2,a1
    80202626:	42a61963          	bne	a2,a0,80202a58 <.LBB48_52>
    8020262a:	008b8693          	addi	a3,s7,8
    8020262e:	00391613          	slli	a2,s2,0x3
    80202632:	00c68733          	add	a4,a3,a2
    80202636:	6304                	ld	s1,0(a4)
    80202638:	060b8d13          	addi	s10,s7,96
    8020263c:	966a                	add	a2,a2,s10
    8020263e:	6210                	ld	a2,0(a2)
    80202640:	f6c43c23          	sd	a2,-136(s0)
    80202644:	008a8613          	addi	a2,s5,8
    80202648:	00359c13          	slli	s8,a1,0x3
    8020264c:	018685b3          	add	a1,a3,s8
    80202650:	00351d93          	slli	s11,a0,0x3
    80202654:	8532                	mv	a0,a2
    80202656:	866e                	mv	a2,s11
    80202658:	0001d097          	auipc	ra,0x1d
    8020265c:	d72080e7          	jalr	-654(ra) # 8021f3ca <memcpy>
    80202660:	018d05b3          	add	a1,s10,s8
    80202664:	060a8513          	addi	a0,s5,96
    80202668:	866e                	mv	a2,s11
    8020266a:	0001d097          	auipc	ra,0x1d
    8020266e:	d60080e7          	jalr	-672(ra) # 8021f3ca <memcpy>
    80202672:	0b2b9d23          	sh	s2,186(s7)
    80202676:	8cde                	mv	s9,s7
    80202678:	000b0363          	beqz	s6,8020267e <_ZN5alloc11collections5btree4node210Handle$LT$alloc..collections..btree..node..NodeRef$LT$alloc..collections..btree..node..marker..Mut$C$K$C$V$C$alloc..collections..btree..node..marker..Leaf$GT$$C$alloc..collections..btree..node..marker..Edge$GT$16insert_recursing17h22f8a96345c00c1cE+0x102>
    8020267c:	8cd6                	mv	s9,s5
    8020267e:	0bacdd03          	lhu	s10,186(s9)
    80202682:	008c8513          	addi	a0,s9,8
    80202686:	00198593          	addi	a1,s3,1
    8020268a:	00399d93          	slli	s11,s3,0x3
    8020268e:	01b50933          	add	s2,a0,s11
    80202692:	04bd7d63          	bgeu	s10,a1,802026ec <_ZN5alloc11collections5btree4node210Handle$LT$alloc..collections..btree..node..NodeRef$LT$alloc..collections..btree..node..marker..Mut$C$K$C$V$C$alloc..collections..btree..node..marker..Leaf$GT$$C$alloc..collections..btree..node..marker..Edge$GT$16insert_recursing17h22f8a96345c00c1cE+0x170>
    80202696:	f6843503          	ld	a0,-152(s0)
    8020269a:	00a93023          	sd	a0,0(s2)
    8020269e:	a051                	j	80202722 <_ZN5alloc11collections5btree4node210Handle$LT$alloc..collections..btree..node..NodeRef$LT$alloc..collections..btree..node..marker..Mut$C$K$C$V$C$alloc..collections..btree..node..marker..Leaf$GT$$C$alloc..collections..btree..node..marker..Edge$GT$16insert_recursing17h22f8a96345c00c1cE+0x1a6>
    802026a0:	00361a13          	slli	s4,a2,0x3
    802026a4:	9552                	add	a0,a0,s4
    802026a6:	40b485b3          	sub	a1,s1,a1
    802026aa:	00359a93          	slli	s5,a1,0x3
    802026ae:	85ca                	mv	a1,s2
    802026b0:	8656                	mv	a2,s5
    802026b2:	0001d097          	auipc	ra,0x1d
    802026b6:	a4e080e7          	jalr	-1458(ra) # 8021f100 <memmove>
    802026ba:	01993023          	sd	s9,0(s2)
    802026be:	060b8513          	addi	a0,s7,96
    802026c2:	013505b3          	add	a1,a0,s3
    802026c6:	9552                	add	a0,a0,s4
    802026c8:	8656                	mv	a2,s5
    802026ca:	0001d097          	auipc	ra,0x1d
    802026ce:	a36080e7          	jalr	-1482(ra) # 8021f100 <memmove>
    802026d2:	4a81                	li	s5,0
    802026d4:	013b8533          	add	a0,s7,s3
    802026d8:	0014859b          	addiw	a1,s1,1
    802026dc:	07853023          	sd	s8,96(a0)
    802026e0:	06050613          	addi	a2,a0,96
    802026e4:	0abb9d23          	sh	a1,186(s7)
    802026e8:	4561                	li	a0,24
    802026ea:	a449                	j	8020296c <_ZN5alloc11collections5btree4node210Handle$LT$alloc..collections..btree..node..NodeRef$LT$alloc..collections..btree..node..marker..Mut$C$K$C$V$C$alloc..collections..btree..node..marker..Leaf$GT$$C$alloc..collections..btree..node..marker..Edge$GT$16insert_recursing17h22f8a96345c00c1cE+0x3f0>
    802026ec:	00359c13          	slli	s8,a1,0x3
    802026f0:	9562                	add	a0,a0,s8
    802026f2:	413d05b3          	sub	a1,s10,s3
    802026f6:	00359b13          	slli	s6,a1,0x3
    802026fa:	85ca                	mv	a1,s2
    802026fc:	865a                	mv	a2,s6
    802026fe:	0001d097          	auipc	ra,0x1d
    80202702:	a02080e7          	jalr	-1534(ra) # 8021f100 <memmove>
    80202706:	f6843503          	ld	a0,-152(s0)
    8020270a:	00a93023          	sd	a0,0(s2)
    8020270e:	060c8513          	addi	a0,s9,96
    80202712:	01b505b3          	add	a1,a0,s11
    80202716:	9562                	add	a0,a0,s8
    80202718:	865a                	mv	a2,s6
    8020271a:	0001d097          	auipc	ra,0x1d
    8020271e:	9e6080e7          	jalr	-1562(ra) # 8021f100 <memmove>
    80202722:	f7843683          	ld	a3,-136(s0)
    80202726:	f7043603          	ld	a2,-144(s0)
    8020272a:	01bc85b3          	add	a1,s9,s11
    8020272e:	001d051b          	addiw	a0,s10,1
    80202732:	f1b0                	sd	a2,96(a1)
    80202734:	0aac9d23          	sh	a0,186(s9)
    80202738:	000bb503          	ld	a0,0(s7)
    8020273c:	06058593          	addi	a1,a1,96
    80202740:	f4b43023          	sd	a1,-192(s0)
    80202744:	20050263          	beqz	a0,80202948 <_ZN5alloc11collections5btree4node210Handle$LT$alloc..collections..btree..node..NodeRef$LT$alloc..collections..btree..node..marker..Mut$C$K$C$V$C$alloc..collections..btree..node..marker..Leaf$GT$$C$alloc..collections..btree..node..marker..Edge$GT$16insert_recursing17h22f8a96345c00c1cE+0x3cc>
    80202748:	4701                	li	a4,0
    8020274a:	8cb6                	mv	s9,a3
    8020274c:	8da6                	mv	s11,s1
    8020274e:	8c56                	mv	s8,s5
    80202750:	865e                	mv	a2,s7
    80202752:	a829                	j	8020276c <_ZN5alloc11collections5btree4node210Handle$LT$alloc..collections..btree..node..NodeRef$LT$alloc..collections..btree..node..marker..Mut$C$K$C$V$C$alloc..collections..btree..node..marker..Leaf$GT$$C$alloc..collections..btree..node..marker..Edge$GT$16insert_recursing17h22f8a96345c00c1cE+0x1f0>
    80202754:	000bb503          	ld	a0,0(s7)
    80202758:	8cb6                	mv	s9,a3
    8020275a:	f5843483          	ld	s1,-168(s0)
    8020275e:	8da6                	mv	s11,s1
    80202760:	8c56                	mv	s8,s5
    80202762:	8a3a                	mv	s4,a4
    80202764:	865e                	mv	a2,s7
    80202766:	85ba                	mv	a1,a4
    80202768:	1e050263          	beqz	a0,8020294c <_ZN5alloc11collections5btree4node210Handle$LT$alloc..collections..btree..node..NodeRef$LT$alloc..collections..btree..node..marker..Mut$C$K$C$V$C$alloc..collections..btree..node..marker..Leaf$GT$$C$alloc..collections..btree..node..marker..Edge$GT$16insert_recursing17h22f8a96345c00c1cE+0x3d0>
    8020276c:	30ea1f63          	bne	s4,a4,80202a8a <.LBB48_55>
    80202770:	8baa                	mv	s7,a0
    80202772:	0ba55b03          	lhu	s6,186(a0)
    80202776:	0b865483          	lhu	s1,184(a2)
    8020277a:	452d                	li	a0,11
    8020277c:	f7b43823          	sd	s11,-144(s0)
    80202780:	20ab6a63          	bltu	s6,a0,80202994 <_ZN5alloc11collections5btree4node210Handle$LT$alloc..collections..btree..node..NodeRef$LT$alloc..collections..btree..node..marker..Mut$C$K$C$V$C$alloc..collections..btree..node..marker..Leaf$GT$$C$alloc..collections..btree..node..marker..Edge$GT$16insert_recursing17h22f8a96345c00c1cE+0x418>
    80202784:	f8040513          	addi	a0,s0,-128
    80202788:	85a6                	mv	a1,s1
    8020278a:	00019097          	auipc	ra,0x19
    8020278e:	684080e7          	jalr	1668(ra) # 8021be0e <_ZN5alloc11collections5btree4node10splitpoint17hbfc66533d6122a33E>
    80202792:	f8043d03          	ld	s10,-128(s0)
    80202796:	f8843983          	ld	s3,-120(s0)
    8020279a:	f9043b03          	ld	s6,-112(s0)
    8020279e:	0babd903          	lhu	s2,186(s7)
    802027a2:	12000513          	li	a0,288
    802027a6:	45a1                	li	a1,8
    802027a8:	00013097          	auipc	ra,0x13
    802027ac:	f2c080e7          	jalr	-212(ra) # 802156d4 <__rust_alloc>
    802027b0:	2e050c63          	beqz	a0,80202aa8 <.LBB48_56+0x16>
    802027b4:	8aaa                	mv	s5,a0
    802027b6:	00053023          	sd	zero,0(a0)
    802027ba:	0babd603          	lhu	a2,186(s7)
    802027be:	fffd4513          	not	a0,s10
    802027c2:	9532                	add	a0,a0,a2
    802027c4:	0aaa9d23          	sh	a0,186(s5)
    802027c8:	45b1                	li	a1,12
    802027ca:	2ab57663          	bgeu	a0,a1,80202a76 <.LBB48_54>
    802027ce:	f7943023          	sd	s9,-160(s0)
    802027d2:	f7843423          	sd	s8,-152(s0)
    802027d6:	001d0593          	addi	a1,s10,1
    802027da:	8e0d                	sub	a2,a2,a1
    802027dc:	26a61e63          	bne	a2,a0,80202a58 <.LBB48_52>
    802027e0:	008b8693          	addi	a3,s7,8
    802027e4:	003d1613          	slli	a2,s10,0x3
    802027e8:	00c68733          	add	a4,a3,a2
    802027ec:	00073c03          	ld	s8,0(a4)
    802027f0:	060b8493          	addi	s1,s7,96
    802027f4:	9626                	add	a2,a2,s1
    802027f6:	6210                	ld	a2,0(a2)
    802027f8:	f6c43c23          	sd	a2,-136(s0)
    802027fc:	008a8613          	addi	a2,s5,8
    80202800:	00359c93          	slli	s9,a1,0x3
    80202804:	019685b3          	add	a1,a3,s9
    80202808:	00351d93          	slli	s11,a0,0x3
    8020280c:	8532                	mv	a0,a2
    8020280e:	866e                	mv	a2,s11
    80202810:	0001d097          	auipc	ra,0x1d
    80202814:	bba080e7          	jalr	-1094(ra) # 8021f3ca <memcpy>
    80202818:	019485b3          	add	a1,s1,s9
    8020281c:	060a8513          	addi	a0,s5,96
    80202820:	866e                	mv	a2,s11
    80202822:	0001d097          	auipc	ra,0x1d
    80202826:	ba8080e7          	jalr	-1112(ra) # 8021f3ca <memcpy>
    8020282a:	0bab9d23          	sh	s10,186(s7)
    8020282e:	0baad483          	lhu	s1,186(s5)
    80202832:	00148513          	addi	a0,s1,1
    80202836:	45b1                	li	a1,12
    80202838:	28b4f063          	bgeu	s1,a1,80202ab8 <.LBB48_57>
    8020283c:	41a90633          	sub	a2,s2,s10
    80202840:	20a61c63          	bne	a2,a0,80202a58 <.LBB48_52>
    80202844:	001a0513          	addi	a0,s4,1
    80202848:	f4a43823          	sd	a0,-176(s0)
    8020284c:	019b8533          	add	a0,s7,s9
    80202850:	0c050593          	addi	a1,a0,192
    80202854:	0c0a8913          	addi	s2,s5,192
    80202858:	060e                	slli	a2,a2,0x3
    8020285a:	854a                	mv	a0,s2
    8020285c:	0001d097          	auipc	ra,0x1d
    80202860:	b6e080e7          	jalr	-1170(ra) # 8021f3ca <memcpy>
    80202864:	4501                	li	a0,0
    80202866:	00351593          	slli	a1,a0,0x3
    8020286a:	95ca                	add	a1,a1,s2
    8020286c:	618c                	ld	a1,0(a1)
    8020286e:	00953633          	sltu	a2,a0,s1
    80202872:	00164693          	xori	a3,a2,1
    80202876:	0aa59c23          	sh	a0,184(a1)
    8020287a:	9532                	add	a0,a0,a2
    8020287c:	00a4b633          	sltu	a2,s1,a0
    80202880:	8e55                	or	a2,a2,a3
    80202882:	0155b023          	sd	s5,0(a1)
    80202886:	d265                	beqz	a2,80202866 <_ZN5alloc11collections5btree4node210Handle$LT$alloc..collections..btree..node..NodeRef$LT$alloc..collections..btree..node..marker..Mut$C$K$C$V$C$alloc..collections..btree..node..marker..Leaf$GT$$C$alloc..collections..btree..node..marker..Edge$GT$16insert_recursing17h22f8a96345c00c1cE+0x2ea>
    80202888:	f5843c23          	sd	s8,-168(s0)
    8020288c:	84de                	mv	s1,s7
    8020288e:	00098363          	beqz	s3,80202894 <_ZN5alloc11collections5btree4node210Handle$LT$alloc..collections..btree..node..NodeRef$LT$alloc..collections..btree..node..marker..Mut$C$K$C$V$C$alloc..collections..btree..node..marker..Leaf$GT$$C$alloc..collections..btree..node..marker..Edge$GT$16insert_recursing17h22f8a96345c00c1cE+0x318>
    80202892:	84d6                	mv	s1,s5
    80202894:	0ba4da03          	lhu	s4,186(s1)
    80202898:	00848c13          	addi	s8,s1,8
    8020289c:	001b0913          	addi	s2,s6,1
    802028a0:	003b1d93          	slli	s11,s6,0x3
    802028a4:	00391d13          	slli	s10,s2,0x3
    802028a8:	416a0cb3          	sub	s9,s4,s6
    802028ac:	032a6763          	bltu	s4,s2,802028da <_ZN5alloc11collections5btree4node210Handle$LT$alloc..collections..btree..node..NodeRef$LT$alloc..collections..btree..node..marker..Mut$C$K$C$V$C$alloc..collections..btree..node..marker..Leaf$GT$$C$alloc..collections..btree..node..marker..Edge$GT$16insert_recursing17h22f8a96345c00c1cE+0x35e>
    802028b0:	01bc05b3          	add	a1,s8,s11
    802028b4:	01ac0533          	add	a0,s8,s10
    802028b8:	003c9993          	slli	s3,s9,0x3
    802028bc:	864e                	mv	a2,s3
    802028be:	0001d097          	auipc	ra,0x1d
    802028c2:	842080e7          	jalr	-1982(ra) # 8021f100 <memmove>
    802028c6:	06048513          	addi	a0,s1,96
    802028ca:	01b505b3          	add	a1,a0,s11
    802028ce:	956a                	add	a0,a0,s10
    802028d0:	864e                	mv	a2,s3
    802028d2:	0001d097          	auipc	ra,0x1d
    802028d6:	82e080e7          	jalr	-2002(ra) # 8021f100 <memmove>
    802028da:	01bc0533          	add	a0,s8,s11
    802028de:	f7043583          	ld	a1,-144(s0)
    802028e2:	e10c                	sd	a1,0(a0)
    802028e4:	01b489b3          	add	s3,s1,s11
    802028e8:	f6043503          	ld	a0,-160(s0)
    802028ec:	06a9b023          	sd	a0,96(s3)
    802028f0:	002a0c13          	addi	s8,s4,2
    802028f4:	002b0513          	addi	a0,s6,2
    802028f8:	0c048d93          	addi	s11,s1,192
    802028fc:	01857c63          	bgeu	a0,s8,80202914 <_ZN5alloc11collections5btree4node210Handle$LT$alloc..collections..btree..node..NodeRef$LT$alloc..collections..btree..node..marker..Mut$C$K$C$V$C$alloc..collections..btree..node..marker..Leaf$GT$$C$alloc..collections..btree..node..marker..Edge$GT$16insert_recursing17h22f8a96345c00c1cE+0x398>
    80202900:	01ad85b3          	add	a1,s11,s10
    80202904:	050e                	slli	a0,a0,0x3
    80202906:	956e                	add	a0,a0,s11
    80202908:	003c9613          	slli	a2,s9,0x3
    8020290c:	0001c097          	auipc	ra,0x1c
    80202910:	7f4080e7          	jalr	2036(ra) # 8021f100 <memmove>
    80202914:	001a0513          	addi	a0,s4,1
    80202918:	01ad85b3          	add	a1,s11,s10
    8020291c:	f6843603          	ld	a2,-152(s0)
    80202920:	e190                	sd	a2,0(a1)
    80202922:	0aa49d23          	sh	a0,186(s1)
    80202926:	f7843683          	ld	a3,-136(s0)
    8020292a:	f5043703          	ld	a4,-176(s0)
    8020292e:	e38973e3          	bgeu	s2,s8,80202754 <_ZN5alloc11collections5btree4node210Handle$LT$alloc..collections..btree..node..NodeRef$LT$alloc..collections..btree..node..marker..Mut$C$K$C$V$C$alloc..collections..btree..node..marker..Leaf$GT$$C$alloc..collections..btree..node..marker..Edge$GT$16insert_recursing17h22f8a96345c00c1cE+0x1d8>
    80202932:	0c898593          	addi	a1,s3,200
    80202936:	6190                	ld	a2,0(a1)
    80202938:	0b05                	addi	s6,s6,1
    8020293a:	e204                	sd	s1,0(a2)
    8020293c:	0b661c23          	sh	s6,184(a2)
    80202940:	05a1                	addi	a1,a1,8
    80202942:	ff651ae3          	bne	a0,s6,80202936 <_ZN5alloc11collections5btree4node210Handle$LT$alloc..collections..btree..node..NodeRef$LT$alloc..collections..btree..node..marker..Mut$C$K$C$V$C$alloc..collections..btree..node..marker..Leaf$GT$$C$alloc..collections..btree..node..marker..Edge$GT$16insert_recursing17h22f8a96345c00c1cE+0x3ba>
    80202946:	b539                	j	80202754 <_ZN5alloc11collections5btree4node210Handle$LT$alloc..collections..btree..node..NodeRef$LT$alloc..collections..btree..node..marker..Mut$C$K$C$V$C$alloc..collections..btree..node..marker..Leaf$GT$$C$alloc..collections..btree..node..marker..Edge$GT$16insert_recursing17h22f8a96345c00c1cE+0x1d8>
    80202948:	4581                	li	a1,0
    8020294a:	8752                	mv	a4,s4
    8020294c:	f4843b03          	ld	s6,-184(s0)
    80202950:	009b3023          	sd	s1,0(s6)
    80202954:	00db3423          	sd	a3,8(s6)
    80202958:	00eb3823          	sd	a4,16(s6)
    8020295c:	017b3c23          	sd	s7,24(s6)
    80202960:	02bb3023          	sd	a1,32(s6)
    80202964:	02800513          	li	a0,40
    80202968:	f4043603          	ld	a2,-192(s0)
    8020296c:	955a                	add	a0,a0,s6
    8020296e:	01553023          	sd	s5,0(a0)
    80202972:	02cb3823          	sd	a2,48(s6)
    80202976:	70ea                	ld	ra,184(sp)
    80202978:	744a                	ld	s0,176(sp)
    8020297a:	74aa                	ld	s1,168(sp)
    8020297c:	790a                	ld	s2,160(sp)
    8020297e:	69ea                	ld	s3,152(sp)
    80202980:	6a4a                	ld	s4,144(sp)
    80202982:	6aaa                	ld	s5,136(sp)
    80202984:	6b0a                	ld	s6,128(sp)
    80202986:	7be6                	ld	s7,120(sp)
    80202988:	7c46                	ld	s8,112(sp)
    8020298a:	7ca6                	ld	s9,104(sp)
    8020298c:	7d06                	ld	s10,96(sp)
    8020298e:	6de6                	ld	s11,88(sp)
    80202990:	6129                	addi	sp,sp,192
    80202992:	8082                	ret
    80202994:	001b0913          	addi	s2,s6,1
    80202998:	008b8513          	addi	a0,s7,8
    8020299c:	00148613          	addi	a2,s1,1
    802029a0:	00349d93          	slli	s11,s1,0x3
    802029a4:	01b509b3          	add	s3,a0,s11
    802029a8:	00361d13          	slli	s10,a2,0x3
    802029ac:	0564fe63          	bgeu	s1,s6,80202a08 <_ZN5alloc11collections5btree4node210Handle$LT$alloc..collections..btree..node..NodeRef$LT$alloc..collections..btree..node..marker..Mut$C$K$C$V$C$alloc..collections..btree..node..marker..Leaf$GT$$C$alloc..collections..btree..node..marker..Edge$GT$16insert_recursing17h22f8a96345c00c1cE+0x48c>
    802029b0:	956a                	add	a0,a0,s10
    802029b2:	409b05b3          	sub	a1,s6,s1
    802029b6:	f6c43c23          	sd	a2,-136(s0)
    802029ba:	00359a13          	slli	s4,a1,0x3
    802029be:	85ce                	mv	a1,s3
    802029c0:	8652                	mv	a2,s4
    802029c2:	0001c097          	auipc	ra,0x1c
    802029c6:	73e080e7          	jalr	1854(ra) # 8021f100 <memmove>
    802029ca:	060b8513          	addi	a0,s7,96
    802029ce:	01b50ab3          	add	s5,a0,s11
    802029d2:	956a                	add	a0,a0,s10
    802029d4:	85d6                	mv	a1,s5
    802029d6:	8652                	mv	a2,s4
    802029d8:	0001c097          	auipc	ra,0x1c
    802029dc:	728080e7          	jalr	1832(ra) # 8021f100 <memmove>
    802029e0:	f7043503          	ld	a0,-144(s0)
    802029e4:	00a9b023          	sd	a0,0(s3)
    802029e8:	019ab023          	sd	s9,0(s5)
    802029ec:	0c0b8513          	addi	a0,s7,192
    802029f0:	01a505b3          	add	a1,a0,s10
    802029f4:	956e                	add	a0,a0,s11
    802029f6:	0541                	addi	a0,a0,16
    802029f8:	8652                	mv	a2,s4
    802029fa:	0001c097          	auipc	ra,0x1c
    802029fe:	706080e7          	jalr	1798(ra) # 8021f100 <memmove>
    80202a02:	f7843603          	ld	a2,-136(s0)
    80202a06:	a809                	j	80202a18 <_ZN5alloc11collections5btree4node210Handle$LT$alloc..collections..btree..node..NodeRef$LT$alloc..collections..btree..node..marker..Mut$C$K$C$V$C$alloc..collections..btree..node..marker..Leaf$GT$$C$alloc..collections..btree..node..marker..Edge$GT$16insert_recursing17h22f8a96345c00c1cE+0x49c>
    80202a08:	f7043503          	ld	a0,-144(s0)
    80202a0c:	00a9b023          	sd	a0,0(s3)
    80202a10:	01bb8533          	add	a0,s7,s11
    80202a14:	07953023          	sd	s9,96(a0)
    80202a18:	01ab8533          	add	a0,s7,s10
    80202a1c:	002b0593          	addi	a1,s6,2
    80202a20:	0d853023          	sd	s8,192(a0)
    80202a24:	0b2b9d23          	sh	s2,186(s7)
    80202a28:	4561                	li	a0,24
    80202a2a:	02b67363          	bgeu	a2,a1,80202a50 <_ZN5alloc11collections5btree4node210Handle$LT$alloc..collections..btree..node..NodeRef$LT$alloc..collections..btree..node..marker..Mut$C$K$C$V$C$alloc..collections..btree..node..marker..Leaf$GT$$C$alloc..collections..btree..node..marker..Edge$GT$16insert_recursing17h22f8a96345c00c1cE+0x4d4>
    80202a2e:	01bb85b3          	add	a1,s7,s11
    80202a32:	0c858593          	addi	a1,a1,200
    80202a36:	f4843b03          	ld	s6,-184(s0)
    80202a3a:	6190                	ld	a2,0(a1)
    80202a3c:	0485                	addi	s1,s1,1
    80202a3e:	01763023          	sd	s7,0(a2)
    80202a42:	0a961c23          	sh	s1,184(a2)
    80202a46:	05a1                	addi	a1,a1,8
    80202a48:	fe9919e3          	bne	s2,s1,80202a3a <_ZN5alloc11collections5btree4node210Handle$LT$alloc..collections..btree..node..NodeRef$LT$alloc..collections..btree..node..marker..Mut$C$K$C$V$C$alloc..collections..btree..node..marker..Leaf$GT$$C$alloc..collections..btree..node..marker..Edge$GT$16insert_recursing17h22f8a96345c00c1cE+0x4be>
    80202a4c:	4a81                	li	s5,0
    80202a4e:	bf29                	j	80202968 <_ZN5alloc11collections5btree4node210Handle$LT$alloc..collections..btree..node..NodeRef$LT$alloc..collections..btree..node..marker..Mut$C$K$C$V$C$alloc..collections..btree..node..marker..Leaf$GT$$C$alloc..collections..btree..node..marker..Edge$GT$16insert_recursing17h22f8a96345c00c1cE+0x3ec>
    80202a50:	4a81                	li	s5,0
    80202a52:	f4843b03          	ld	s6,-184(s0)
    80202a56:	bf09                	j	80202968 <_ZN5alloc11collections5btree4node210Handle$LT$alloc..collections..btree..node..NodeRef$LT$alloc..collections..btree..node..marker..Mut$C$K$C$V$C$alloc..collections..btree..node..marker..Leaf$GT$$C$alloc..collections..btree..node..marker..Edge$GT$16insert_recursing17h22f8a96345c00c1cE+0x3ec>

0000000080202a58 <.LBB48_52>:
    80202a58:	0001d517          	auipc	a0,0x1d
    80202a5c:	7c850513          	addi	a0,a0,1992 # 80220220 <.Lanon.d6099a4703f55f35884a06451ebc7765.14>

0000000080202a60 <.LBB48_53>:
    80202a60:	0001d617          	auipc	a2,0x1d
    80202a64:	7e860613          	addi	a2,a2,2024 # 80220248 <.Lanon.d6099a4703f55f35884a06451ebc7765.15>
    80202a68:	02800593          	li	a1,40
    80202a6c:	00019097          	auipc	ra,0x19
    80202a70:	722080e7          	jalr	1826(ra) # 8021c18e <_ZN4core9panicking5panic17h183aba44d01f42adE>
	...

0000000080202a76 <.LBB48_54>:
    80202a76:	0001d617          	auipc	a2,0x1d
    80202a7a:	7ea60613          	addi	a2,a2,2026 # 80220260 <.Lanon.d6099a4703f55f35884a06451ebc7765.16>
    80202a7e:	45ad                	li	a1,11
    80202a80:	0001b097          	auipc	ra,0x1b
    80202a84:	008080e7          	jalr	8(ra) # 8021da88 <_ZN4core5slice5index24slice_end_index_len_fail17he5846e131809ee70E>
	...

0000000080202a8a <.LBB48_55>:
    80202a8a:	0001e517          	auipc	a0,0x1e
    80202a8e:	80650513          	addi	a0,a0,-2042 # 80220290 <.Lanon.d6099a4703f55f35884a06451ebc7765.18>

0000000080202a92 <.LBB48_56>:
    80202a92:	0001e617          	auipc	a2,0x1e
    80202a96:	83660613          	addi	a2,a2,-1994 # 802202c8 <.Lanon.d6099a4703f55f35884a06451ebc7765.19>
    80202a9a:	03500593          	li	a1,53
    80202a9e:	00019097          	auipc	ra,0x19
    80202aa2:	6f0080e7          	jalr	1776(ra) # 8021c18e <_ZN4core9panicking5panic17h183aba44d01f42adE>
    80202aa6:	0000                	unimp
    80202aa8:	12000513          	li	a0,288
    80202aac:	45a1                	li	a1,8
    80202aae:	00019097          	auipc	ra,0x19
    80202ab2:	344080e7          	jalr	836(ra) # 8021bdf2 <_ZN5alloc5alloc18handle_alloc_error17h3b12d3b52c903b1cE>
	...

0000000080202ab8 <.LBB48_57>:
    80202ab8:	0001d617          	auipc	a2,0x1d
    80202abc:	7c060613          	addi	a2,a2,1984 # 80220278 <.Lanon.d6099a4703f55f35884a06451ebc7765.17>
    80202ac0:	45b1                	li	a1,12
    80202ac2:	0001b097          	auipc	ra,0x1b
    80202ac6:	fc6080e7          	jalr	-58(ra) # 8021da88 <_ZN4core5slice5index24slice_end_index_len_fail17he5846e131809ee70E>
    80202aca:	0000                	unimp
    80202acc:	0c000513          	li	a0,192
    80202ad0:	45a1                	li	a1,8
    80202ad2:	00019097          	auipc	ra,0x19
    80202ad6:	320080e7          	jalr	800(ra) # 8021bdf2 <_ZN5alloc5alloc18handle_alloc_error17h3b12d3b52c903b1cE>
	...

0000000080202adc <_ZN5alloc11collections5btree4node210Handle$LT$alloc..collections..btree..node..NodeRef$LT$alloc..collections..btree..node..marker..Mut$C$K$C$V$C$alloc..collections..btree..node..marker..Leaf$GT$$C$alloc..collections..btree..node..marker..Edge$GT$16insert_recursing17h2c21b6401ef358ccE>:
    80202adc:	7101                	addi	sp,sp,-512
    80202ade:	ff86                	sd	ra,504(sp)
    80202ae0:	fba2                	sd	s0,496(sp)
    80202ae2:	f7a6                	sd	s1,488(sp)
    80202ae4:	f3ca                	sd	s2,480(sp)
    80202ae6:	efce                	sd	s3,472(sp)
    80202ae8:	ebd2                	sd	s4,464(sp)
    80202aea:	e7d6                	sd	s5,456(sp)
    80202aec:	e3da                	sd	s6,448(sp)
    80202aee:	ff5e                	sd	s7,440(sp)
    80202af0:	fb62                	sd	s8,432(sp)
    80202af2:	f766                	sd	s9,424(sp)
    80202af4:	f36a                	sd	s10,416(sp)
    80202af6:	ef6e                	sd	s11,408(sp)
    80202af8:	0400                	addi	s0,sp,512
    80202afa:	0085bb83          	ld	s7,8(a1)
    80202afe:	3d2bdc03          	lhu	s8,978(s7)
    80202b02:	0105b983          	ld	s3,16(a1)
    80202b06:	472d                	li	a4,11
    80202b08:	8cb6                	mv	s9,a3
    80202b0a:	8932                	mv	s2,a2
    80202b0c:	84aa                	mv	s1,a0
    80202b0e:	00ec7f63          	bgeu	s8,a4,80202b2c <_ZN5alloc11collections5btree4node210Handle$LT$alloc..collections..btree..node..NodeRef$LT$alloc..collections..btree..node..marker..Mut$C$K$C$V$C$alloc..collections..btree..node..marker..Leaf$GT$$C$alloc..collections..btree..node..marker..Edge$GT$16insert_recursing17h2c21b6401ef358ccE+0x50>
    80202b12:	378b8513          	addi	a0,s7,888
    80202b16:	00198a13          	addi	s4,s3,1
    80202b1a:	00399593          	slli	a1,s3,0x3
    80202b1e:	00b50ab3          	add	s5,a0,a1
    80202b22:	174c7063          	bgeu	s8,s4,80202c82 <_ZN5alloc11collections5btree4node210Handle$LT$alloc..collections..btree..node..NodeRef$LT$alloc..collections..btree..node..marker..Mut$C$K$C$V$C$alloc..collections..btree..node..marker..Leaf$GT$$C$alloc..collections..btree..node..marker..Edge$GT$16insert_recursing17h2c21b6401ef358ccE+0x1a6>
    80202b26:	012ab023          	sd	s2,0(s5)
    80202b2a:	aa49                	j	80202cbc <_ZN5alloc11collections5btree4node210Handle$LT$alloc..collections..btree..node..NodeRef$LT$alloc..collections..btree..node..marker..Mut$C$K$C$V$C$alloc..collections..btree..node..marker..Leaf$GT$$C$alloc..collections..btree..node..marker..Edge$GT$16insert_recursing17h2c21b6401ef358ccE+0x1e0>
    80202b2c:	e0943823          	sd	s1,-496(s0)
    80202b30:	0005ba03          	ld	s4,0(a1)
    80202b34:	f5040513          	addi	a0,s0,-176
    80202b38:	85ce                	mv	a1,s3
    80202b3a:	00019097          	auipc	ra,0x19
    80202b3e:	2d4080e7          	jalr	724(ra) # 8021be0e <_ZN5alloc11collections5btree4node10splitpoint17hbfc66533d6122a33E>
    80202b42:	f5043983          	ld	s3,-176(s0)
    80202b46:	f5843503          	ld	a0,-168(s0)
    80202b4a:	e4a43823          	sd	a0,-432(s0)
    80202b4e:	f6043c03          	ld	s8,-160(s0)
    80202b52:	3d800513          	li	a0,984
    80202b56:	45a1                	li	a1,8
    80202b58:	00013097          	auipc	ra,0x13
    80202b5c:	b7c080e7          	jalr	-1156(ra) # 802156d4 <__rust_alloc>
    80202b60:	06050de3          	beqz	a0,802033da <.LBB49_64+0x14>
    80202b64:	8b2a                	mv	s6,a0
    80202b66:	36053823          	sd	zero,880(a0)
    80202b6a:	3d2bdd03          	lhu	s10,978(s7)
    80202b6e:	fff9c513          	not	a0,s3
    80202b72:	00ad0ab3          	add	s5,s10,a0
    80202b76:	3d5b1923          	sh	s5,978(s6)
    80202b7a:	378b8d93          	addi	s11,s7,888
    80202b7e:	00399513          	slli	a0,s3,0x3
    80202b82:	956e                	add	a0,a0,s11
    80202b84:	6108                	ld	a0,0(a0)
    80202b86:	e4a43023          	sd	a0,-448(s0)
    80202b8a:	05000513          	li	a0,80
    80202b8e:	02a98533          	mul	a0,s3,a0
    80202b92:	00ab84b3          	add	s1,s7,a0
    80202b96:	f5040513          	addi	a0,s0,-176
    80202b9a:	04800613          	li	a2,72
    80202b9e:	85a6                	mv	a1,s1
    80202ba0:	0001d097          	auipc	ra,0x1d
    80202ba4:	82a080e7          	jalr	-2006(ra) # 8021f3ca <memcpy>
    80202ba8:	04f48503          	lb	a0,79(s1)
    80202bac:	0484c583          	lbu	a1,72(s1)
    80202bb0:	e4b43423          	sd	a1,-440(s0)
    80202bb4:	e6a40323          	sb	a0,-410(s0)
    80202bb8:	04e48503          	lb	a0,78(s1)
    80202bbc:	04d4c583          	lbu	a1,77(s1)
    80202bc0:	0522                	slli	a0,a0,0x8
    80202bc2:	8d4d                	or	a0,a0,a1
    80202bc4:	e6a41223          	sh	a0,-412(s0)
    80202bc8:	04a4c503          	lbu	a0,74(s1)
    80202bcc:	0494c583          	lbu	a1,73(s1)
    80202bd0:	04c48603          	lb	a2,76(s1)
    80202bd4:	04b4c683          	lbu	a3,75(s1)
    80202bd8:	0522                	slli	a0,a0,0x8
    80202bda:	8d4d                	or	a0,a0,a1
    80202bdc:	00861593          	slli	a1,a2,0x8
    80202be0:	8dd5                	or	a1,a1,a3
    80202be2:	05c2                	slli	a1,a1,0x10
    80202be4:	8d4d                	or	a0,a0,a1
    80202be6:	45b1                	li	a1,12
    80202be8:	e6a42023          	sw	a0,-416(s0)
    80202bec:	7ebaff63          	bgeu	s5,a1,802033ea <.LBB49_65>
    80202bf0:	00198493          	addi	s1,s3,1
    80202bf4:	409d0533          	sub	a0,s10,s1
    80202bf8:	77551b63          	bne	a0,s5,8020336e <.LBB49_59>
    80202bfc:	378b0513          	addi	a0,s6,888
    80202c00:	00349593          	slli	a1,s1,0x3
    80202c04:	95ee                	add	a1,a1,s11
    80202c06:	003a9613          	slli	a2,s5,0x3
    80202c0a:	0001c097          	auipc	ra,0x1c
    80202c0e:	7c0080e7          	jalr	1984(ra) # 8021f3ca <memcpy>
    80202c12:	05000513          	li	a0,80
    80202c16:	02a485b3          	mul	a1,s1,a0
    80202c1a:	84de                	mv	s1,s7
    80202c1c:	95de                	add	a1,a1,s7
    80202c1e:	02aa8633          	mul	a2,s5,a0
    80202c22:	855a                	mv	a0,s6
    80202c24:	0001c097          	auipc	ra,0x1c
    80202c28:	7a6080e7          	jalr	1958(ra) # 8021f3ca <memcpy>
    80202c2c:	3d3b9923          	sh	s3,978(s7)
    80202c30:	f0040513          	addi	a0,s0,-256
    80202c34:	f5040593          	addi	a1,s0,-176
    80202c38:	04800613          	li	a2,72
    80202c3c:	0001c097          	auipc	ra,0x1c
    80202c40:	78e080e7          	jalr	1934(ra) # 8021f3ca <memcpy>
    80202c44:	e6042503          	lw	a0,-416(s0)
    80202c48:	e6441583          	lh	a1,-412(s0)
    80202c4c:	e6640603          	lb	a2,-410(s0)
    80202c50:	f4a42423          	sw	a0,-184(s0)
    80202c54:	f4b41623          	sh	a1,-180(s0)
    80202c58:	f4c40723          	sb	a2,-178(s0)
    80202c5c:	e5043503          	ld	a0,-432(s0)
    80202c60:	c111                	beqz	a0,80202c64 <_ZN5alloc11collections5btree4node210Handle$LT$alloc..collections..btree..node..NodeRef$LT$alloc..collections..btree..node..marker..Mut$C$K$C$V$C$alloc..collections..btree..node..marker..Leaf$GT$$C$alloc..collections..btree..node..marker..Edge$GT$16insert_recursing17h2c21b6401ef358ccE+0x188>
    80202c62:	84da                	mv	s1,s6
    80202c64:	3d24da83          	lhu	s5,978(s1)
    80202c68:	37848513          	addi	a0,s1,888
    80202c6c:	001c0d13          	addi	s10,s8,1
    80202c70:	003c1593          	slli	a1,s8,0x3
    80202c74:	00b509b3          	add	s3,a0,a1
    80202c78:	07aaf563          	bgeu	s5,s10,80202ce2 <_ZN5alloc11collections5btree4node210Handle$LT$alloc..collections..btree..node..NodeRef$LT$alloc..collections..btree..node..marker..Mut$C$K$C$V$C$alloc..collections..btree..node..marker..Leaf$GT$$C$alloc..collections..btree..node..marker..Edge$GT$16insert_recursing17h2c21b6401ef358ccE+0x206>
    80202c7c:	0129b023          	sd	s2,0(s3)
    80202c80:	a871                	j	80202d1c <_ZN5alloc11collections5btree4node210Handle$LT$alloc..collections..btree..node..NodeRef$LT$alloc..collections..btree..node..marker..Mut$C$K$C$V$C$alloc..collections..btree..node..marker..Leaf$GT$$C$alloc..collections..btree..node..marker..Edge$GT$16insert_recursing17h2c21b6401ef358ccE+0x240>
    80202c82:	003a1593          	slli	a1,s4,0x3
    80202c86:	952e                	add	a0,a0,a1
    80202c88:	413c0b33          	sub	s6,s8,s3
    80202c8c:	003b1613          	slli	a2,s6,0x3
    80202c90:	85d6                	mv	a1,s5
    80202c92:	0001c097          	auipc	ra,0x1c
    80202c96:	46e080e7          	jalr	1134(ra) # 8021f100 <memmove>
    80202c9a:	012ab023          	sd	s2,0(s5)
    80202c9e:	05000613          	li	a2,80
    80202ca2:	02c98533          	mul	a0,s3,a2
    80202ca6:	00ab85b3          	add	a1,s7,a0
    80202caa:	02ca0533          	mul	a0,s4,a2
    80202cae:	955e                	add	a0,a0,s7
    80202cb0:	02cb0633          	mul	a2,s6,a2
    80202cb4:	0001c097          	auipc	ra,0x1c
    80202cb8:	44c080e7          	jalr	1100(ra) # 8021f100 <memmove>
    80202cbc:	001c091b          	addiw	s2,s8,1
    80202cc0:	05000513          	li	a0,80
    80202cc4:	02a98533          	mul	a0,s3,a0
    80202cc8:	00ab89b3          	add	s3,s7,a0
    80202ccc:	05000613          	li	a2,80
    80202cd0:	854e                	mv	a0,s3
    80202cd2:	85e6                	mv	a1,s9
    80202cd4:	0001c097          	auipc	ra,0x1c
    80202cd8:	6f6080e7          	jalr	1782(ra) # 8021f3ca <memcpy>
    80202cdc:	3d2b9923          	sh	s2,978(s7)
    80202ce0:	a879                	j	80202d7e <_ZN5alloc11collections5btree4node210Handle$LT$alloc..collections..btree..node..NodeRef$LT$alloc..collections..btree..node..marker..Mut$C$K$C$V$C$alloc..collections..btree..node..marker..Leaf$GT$$C$alloc..collections..btree..node..marker..Edge$GT$16insert_recursing17h2c21b6401ef358ccE+0x2a2>
    80202ce2:	003d1593          	slli	a1,s10,0x3
    80202ce6:	952e                	add	a0,a0,a1
    80202ce8:	418a8db3          	sub	s11,s5,s8
    80202cec:	003d9613          	slli	a2,s11,0x3
    80202cf0:	85ce                	mv	a1,s3
    80202cf2:	0001c097          	auipc	ra,0x1c
    80202cf6:	40e080e7          	jalr	1038(ra) # 8021f100 <memmove>
    80202cfa:	0129b023          	sd	s2,0(s3)
    80202cfe:	05000613          	li	a2,80
    80202d02:	02cc0533          	mul	a0,s8,a2
    80202d06:	00a485b3          	add	a1,s1,a0
    80202d0a:	02cd0533          	mul	a0,s10,a2
    80202d0e:	9526                	add	a0,a0,s1
    80202d10:	02cd8633          	mul	a2,s11,a2
    80202d14:	0001c097          	auipc	ra,0x1c
    80202d18:	3ec080e7          	jalr	1004(ra) # 8021f100 <memmove>
    80202d1c:	001a891b          	addiw	s2,s5,1
    80202d20:	05000513          	li	a0,80
    80202d24:	02ac0533          	mul	a0,s8,a0
    80202d28:	9526                	add	a0,a0,s1
    80202d2a:	05000613          	li	a2,80
    80202d2e:	e0a43423          	sd	a0,-504(s0)
    80202d32:	85e6                	mv	a1,s9
    80202d34:	0001c097          	auipc	ra,0x1c
    80202d38:	696080e7          	jalr	1686(ra) # 8021f3ca <memcpy>
    80202d3c:	3d249923          	sh	s2,978(s1)
    80202d40:	eb040513          	addi	a0,s0,-336
    80202d44:	f0040593          	addi	a1,s0,-256
    80202d48:	04800613          	li	a2,72
    80202d4c:	0001c097          	auipc	ra,0x1c
    80202d50:	67e080e7          	jalr	1662(ra) # 8021f3ca <memcpy>
    80202d54:	f4842503          	lw	a0,-184(s0)
    80202d58:	f4c41583          	lh	a1,-180(s0)
    80202d5c:	f4e40603          	lb	a2,-178(s0)
    80202d60:	eea42c23          	sw	a0,-264(s0)
    80202d64:	eeb41e23          	sh	a1,-260(s0)
    80202d68:	4509                	li	a0,2
    80202d6a:	eec40f23          	sb	a2,-258(s0)
    80202d6e:	e4843983          	ld	s3,-440(s0)
    80202d72:	02a99b63          	bne	s3,a0,80202da8 <_ZN5alloc11collections5btree4node210Handle$LT$alloc..collections..btree..node..NodeRef$LT$alloc..collections..btree..node..marker..Mut$C$K$C$V$C$alloc..collections..btree..node..marker..Leaf$GT$$C$alloc..collections..btree..node..marker..Edge$GT$16insert_recursing17h2c21b6401ef358ccE+0x2cc>
    80202d76:	e1043483          	ld	s1,-496(s0)
    80202d7a:	e0843983          	ld	s3,-504(s0)
    80202d7e:	4509                	li	a0,2
    80202d80:	06a48823          	sb	a0,112(s1)
    80202d84:	0734bc23          	sd	s3,120(s1)
    80202d88:	70fe                	ld	ra,504(sp)
    80202d8a:	745e                	ld	s0,496(sp)
    80202d8c:	74be                	ld	s1,488(sp)
    80202d8e:	791e                	ld	s2,480(sp)
    80202d90:	69fe                	ld	s3,472(sp)
    80202d92:	6a5e                	ld	s4,464(sp)
    80202d94:	6abe                	ld	s5,456(sp)
    80202d96:	6b1e                	ld	s6,448(sp)
    80202d98:	7bfa                	ld	s7,440(sp)
    80202d9a:	7c5a                	ld	s8,432(sp)
    80202d9c:	7cba                	ld	s9,424(sp)
    80202d9e:	7d1a                	ld	s10,416(sp)
    80202da0:	6dfa                	ld	s11,408(sp)
    80202da2:	20010113          	addi	sp,sp,512 # 80248200 <_ZN2os2mm14heap_allocator10HEAP_SPACE17h2ccfaba9cfee958bE.llvm.17151425911204257973+0x170>
    80202da6:	8082                	ret
    80202da8:	e6040513          	addi	a0,s0,-416
    80202dac:	eb040593          	addi	a1,s0,-336
    80202db0:	04800613          	li	a2,72
    80202db4:	0001c097          	auipc	ra,0x1c
    80202db8:	616080e7          	jalr	1558(ra) # 8021f3ca <memcpy>
    80202dbc:	ef842503          	lw	a0,-264(s0)
    80202dc0:	efc41583          	lh	a1,-260(s0)
    80202dc4:	efe40603          	lb	a2,-258(s0)
    80202dc8:	e4a42c23          	sw	a0,-424(s0)
    80202dcc:	e4b41e23          	sh	a1,-420(s0)
    80202dd0:	e4c40f23          	sb	a2,-418(s0)
    80202dd4:	8ade                	mv	s5,s7
    80202dd6:	370bb503          	ld	a0,880(s7)
    80202dda:	3a050663          	beqz	a0,80203186 <_ZN5alloc11collections5btree4node210Handle$LT$alloc..collections..btree..node..NodeRef$LT$alloc..collections..btree..node..marker..Mut$C$K$C$V$C$alloc..collections..btree..node..marker..Leaf$GT$$C$alloc..collections..btree..node..marker..Edge$GT$16insert_recursing17h2c21b6401ef358ccE+0x6aa>
    80202dde:	4601                	li	a2,0
    80202de0:	05000d93          	li	s11,80
    80202de4:	8bd2                	mv	s7,s4
    80202de6:	85d6                	mv	a1,s5
    80202de8:	895a                	mv	s2,s6
    80202dea:	e4043c03          	ld	s8,-448(s0)
    80202dee:	8cce                	mv	s9,s3
    80202df0:	58cb9e63          	bne	s7,a2,8020338c <.LBB49_61>
    80202df4:	84aa                	mv	s1,a0
    80202df6:	3d255a83          	lhu	s5,978(a0)
    80202dfa:	3d05dd03          	lhu	s10,976(a1)
    80202dfe:	452d                	li	a0,11
    80202e00:	3eaaef63          	bltu	s5,a0,802031fe <_ZN5alloc11collections5btree4node210Handle$LT$alloc..collections..btree..node..NodeRef$LT$alloc..collections..btree..node..marker..Mut$C$K$C$V$C$alloc..collections..btree..node..marker..Leaf$GT$$C$alloc..collections..btree..node..marker..Edge$GT$16insert_recursing17h2c21b6401ef358ccE+0x722>
    80202e04:	e3843023          	sd	s8,-480(s0)
    80202e08:	e3943823          	sd	s9,-464(s0)
    80202e0c:	e3243c23          	sd	s2,-456(s0)
    80202e10:	f5040513          	addi	a0,s0,-176
    80202e14:	85ea                	mv	a1,s10
    80202e16:	00019097          	auipc	ra,0x19
    80202e1a:	ff8080e7          	jalr	-8(ra) # 8021be0e <_ZN5alloc11collections5btree4node10splitpoint17hbfc66533d6122a33E>
    80202e1e:	f5043a83          	ld	s5,-176(s0)
    80202e22:	f5843503          	ld	a0,-168(s0)
    80202e26:	e2a43423          	sd	a0,-472(s0)
    80202e2a:	f6043903          	ld	s2,-160(s0)
    80202e2e:	3d24d983          	lhu	s3,978(s1)
    80202e32:	43800513          	li	a0,1080
    80202e36:	45a1                	li	a1,8
    80202e38:	00013097          	auipc	ra,0x13
    80202e3c:	89c080e7          	jalr	-1892(ra) # 802156d4 <__rust_alloc>
    80202e40:	56050563          	beqz	a0,802033aa <.LBB49_62+0x16>
    80202e44:	8b2a                	mv	s6,a0
    80202e46:	36053823          	sd	zero,880(a0)
    80202e4a:	3d24dc83          	lhu	s9,978(s1)
    80202e4e:	fffac513          	not	a0,s5
    80202e52:	00ac8a33          	add	s4,s9,a0
    80202e56:	3d4b1923          	sh	s4,978(s6)
    80202e5a:	37848c13          	addi	s8,s1,888
    80202e5e:	003a9513          	slli	a0,s5,0x3
    80202e62:	9562                	add	a0,a0,s8
    80202e64:	6108                	ld	a0,0(a0)
    80202e66:	e4a43023          	sd	a0,-448(s0)
    80202e6a:	03ba8533          	mul	a0,s5,s11
    80202e6e:	e4943823          	sd	s1,-432(s0)
    80202e72:	94aa                	add	s1,s1,a0
    80202e74:	f5040513          	addi	a0,s0,-176
    80202e78:	04800613          	li	a2,72
    80202e7c:	85a6                	mv	a1,s1
    80202e7e:	0001c097          	auipc	ra,0x1c
    80202e82:	54c080e7          	jalr	1356(ra) # 8021f3ca <memcpy>
    80202e86:	04f48503          	lb	a0,79(s1)
    80202e8a:	0484cd03          	lbu	s10,72(s1)
    80202e8e:	f4a40723          	sb	a0,-178(s0)
    80202e92:	04e48503          	lb	a0,78(s1)
    80202e96:	04d4c583          	lbu	a1,77(s1)
    80202e9a:	0522                	slli	a0,a0,0x8
    80202e9c:	8d4d                	or	a0,a0,a1
    80202e9e:	f4a41623          	sh	a0,-180(s0)
    80202ea2:	04a4c503          	lbu	a0,74(s1)
    80202ea6:	0494c583          	lbu	a1,73(s1)
    80202eaa:	04c48603          	lb	a2,76(s1)
    80202eae:	04b4c683          	lbu	a3,75(s1)
    80202eb2:	0522                	slli	a0,a0,0x8
    80202eb4:	8d4d                	or	a0,a0,a1
    80202eb6:	00861593          	slli	a1,a2,0x8
    80202eba:	8dd5                	or	a1,a1,a3
    80202ebc:	05c2                	slli	a1,a1,0x10
    80202ebe:	8d4d                	or	a0,a0,a1
    80202ec0:	f4a42423          	sw	a0,-184(s0)
    80202ec4:	4db1                	li	s11,12
    80202ec6:	4fba7563          	bgeu	s4,s11,802033b0 <.LBB49_63>
    80202eca:	001a8493          	addi	s1,s5,1
    80202ece:	409c8533          	sub	a0,s9,s1
    80202ed2:	49451e63          	bne	a0,s4,8020336e <.LBB49_59>
    80202ed6:	378b0513          	addi	a0,s6,888
    80202eda:	00349c93          	slli	s9,s1,0x3
    80202ede:	019c05b3          	add	a1,s8,s9
    80202ee2:	003a1613          	slli	a2,s4,0x3
    80202ee6:	0001c097          	auipc	ra,0x1c
    80202eea:	4e4080e7          	jalr	1252(ra) # 8021f3ca <memcpy>
    80202eee:	05000613          	li	a2,80
    80202ef2:	02c48533          	mul	a0,s1,a2
    80202ef6:	e5043c03          	ld	s8,-432(s0)
    80202efa:	00ac05b3          	add	a1,s8,a0
    80202efe:	02ca0633          	mul	a2,s4,a2
    80202f02:	855a                	mv	a0,s6
    80202f04:	0001c097          	auipc	ra,0x1c
    80202f08:	4c6080e7          	jalr	1222(ra) # 8021f3ca <memcpy>
    80202f0c:	3d5c1923          	sh	s5,978(s8)
    80202f10:	f0040513          	addi	a0,s0,-256
    80202f14:	f5040593          	addi	a1,s0,-176
    80202f18:	04800613          	li	a2,72
    80202f1c:	0001c097          	auipc	ra,0x1c
    80202f20:	4ae080e7          	jalr	1198(ra) # 8021f3ca <memcpy>
    80202f24:	f4842503          	lw	a0,-184(s0)
    80202f28:	f4c41583          	lh	a1,-180(s0)
    80202f2c:	f4e40603          	lb	a2,-178(s0)
    80202f30:	3d2b5483          	lhu	s1,978(s6)
    80202f34:	eea42c23          	sw	a0,-264(s0)
    80202f38:	eeb41e23          	sh	a1,-260(s0)
    80202f3c:	eec40f23          	sb	a2,-258(s0)
    80202f40:	00148513          	addi	a0,s1,1
    80202f44:	49b4f163          	bgeu	s1,s11,802033c6 <.LBB49_64>
    80202f48:	41598633          	sub	a2,s3,s5
    80202f4c:	42a61163          	bne	a2,a0,8020336e <.LBB49_59>
    80202f50:	0b85                	addi	s7,s7,1
    80202f52:	019c0533          	add	a0,s8,s9
    80202f56:	3d850593          	addi	a1,a0,984
    80202f5a:	3d8b0993          	addi	s3,s6,984
    80202f5e:	060e                	slli	a2,a2,0x3
    80202f60:	854e                	mv	a0,s3
    80202f62:	0001c097          	auipc	ra,0x1c
    80202f66:	468080e7          	jalr	1128(ra) # 8021f3ca <memcpy>
    80202f6a:	4501                	li	a0,0
    80202f6c:	00351593          	slli	a1,a0,0x3
    80202f70:	95ce                	add	a1,a1,s3
    80202f72:	618c                	ld	a1,0(a1)
    80202f74:	00953633          	sltu	a2,a0,s1
    80202f78:	00164693          	xori	a3,a2,1
    80202f7c:	3ca59823          	sh	a0,976(a1)
    80202f80:	9532                	add	a0,a0,a2
    80202f82:	00a4b633          	sltu	a2,s1,a0
    80202f86:	8e55                	or	a2,a2,a3
    80202f88:	3765b823          	sd	s6,880(a1)
    80202f8c:	d265                	beqz	a2,80202f6c <_ZN5alloc11collections5btree4node210Handle$LT$alloc..collections..btree..node..NodeRef$LT$alloc..collections..btree..node..marker..Mut$C$K$C$V$C$alloc..collections..btree..node..marker..Leaf$GT$$C$alloc..collections..btree..node..marker..Edge$GT$16insert_recursing17h2c21b6401ef358ccE+0x490>
    80202f8e:	e1743c23          	sd	s7,-488(s0)
    80202f92:	e5a43423          	sd	s10,-440(s0)
    80202f96:	eb040513          	addi	a0,s0,-336
    80202f9a:	f0040593          	addi	a1,s0,-256
    80202f9e:	04800613          	li	a2,72
    80202fa2:	0001c097          	auipc	ra,0x1c
    80202fa6:	428080e7          	jalr	1064(ra) # 8021f3ca <memcpy>
    80202faa:	ef842503          	lw	a0,-264(s0)
    80202fae:	efc41583          	lh	a1,-260(s0)
    80202fb2:	efe40603          	lb	a2,-258(s0)
    80202fb6:	eaa42423          	sw	a0,-344(s0)
    80202fba:	eab41623          	sh	a1,-340(s0)
    80202fbe:	eac40723          	sb	a2,-338(s0)
    80202fc2:	8a62                	mv	s4,s8
    80202fc4:	e2843503          	ld	a0,-472(s0)
    80202fc8:	c111                	beqz	a0,80202fcc <_ZN5alloc11collections5btree4node210Handle$LT$alloc..collections..btree..node..NodeRef$LT$alloc..collections..btree..node..marker..Mut$C$K$C$V$C$alloc..collections..btree..node..marker..Leaf$GT$$C$alloc..collections..btree..node..marker..Edge$GT$16insert_recursing17h2c21b6401ef358ccE+0x4f0>
    80202fca:	8a5a                	mv	s4,s6
    80202fcc:	3d2a5983          	lhu	s3,978(s4)
    80202fd0:	378a0513          	addi	a0,s4,888
    80202fd4:	00190a93          	addi	s5,s2,1
    80202fd8:	00391d93          	slli	s11,s2,0x3
    80202fdc:	01b504b3          	add	s1,a0,s11
    80202fe0:	05000b93          	li	s7,80
    80202fe4:	03790c33          	mul	s8,s2,s7
    80202fe8:	003a9c93          	slli	s9,s5,0x3
    80202fec:	41298d33          	sub	s10,s3,s2
    80202ff0:	0359fc63          	bgeu	s3,s5,80203028 <_ZN5alloc11collections5btree4node210Handle$LT$alloc..collections..btree..node..NodeRef$LT$alloc..collections..btree..node..marker..Mut$C$K$C$V$C$alloc..collections..btree..node..marker..Leaf$GT$$C$alloc..collections..btree..node..marker..Edge$GT$16insert_recursing17h2c21b6401ef358ccE+0x54c>
    80202ff4:	e2043503          	ld	a0,-480(s0)
    80202ff8:	e088                	sd	a0,0(s1)
    80202ffa:	f5040513          	addi	a0,s0,-176
    80202ffe:	e6040593          	addi	a1,s0,-416
    80203002:	04800613          	li	a2,72
    80203006:	0001c097          	auipc	ra,0x1c
    8020300a:	3c4080e7          	jalr	964(ra) # 8021f3ca <memcpy>
    8020300e:	e5842503          	lw	a0,-424(s0)
    80203012:	e5c41583          	lh	a1,-420(s0)
    80203016:	e5e40603          	lb	a2,-418(s0)
    8020301a:	f0a42023          	sw	a0,-256(s0)
    8020301e:	f0b41223          	sh	a1,-252(s0)
    80203022:	f0c40323          	sb	a2,-250(s0)
    80203026:	a8a9                	j	80203080 <_ZN5alloc11collections5btree4node210Handle$LT$alloc..collections..btree..node..NodeRef$LT$alloc..collections..btree..node..marker..Mut$C$K$C$V$C$alloc..collections..btree..node..marker..Leaf$GT$$C$alloc..collections..btree..node..marker..Edge$GT$16insert_recursing17h2c21b6401ef358ccE+0x5a4>
    80203028:	9566                	add	a0,a0,s9
    8020302a:	003d1613          	slli	a2,s10,0x3
    8020302e:	85a6                	mv	a1,s1
    80203030:	0001c097          	auipc	ra,0x1c
    80203034:	0d0080e7          	jalr	208(ra) # 8021f100 <memmove>
    80203038:	e2043503          	ld	a0,-480(s0)
    8020303c:	e088                	sd	a0,0(s1)
    8020303e:	f5040513          	addi	a0,s0,-176
    80203042:	e6040593          	addi	a1,s0,-416
    80203046:	04800613          	li	a2,72
    8020304a:	0001c097          	auipc	ra,0x1c
    8020304e:	380080e7          	jalr	896(ra) # 8021f3ca <memcpy>
    80203052:	e5842503          	lw	a0,-424(s0)
    80203056:	e5c41583          	lh	a1,-420(s0)
    8020305a:	e5e40603          	lb	a2,-418(s0)
    8020305e:	f0a42023          	sw	a0,-256(s0)
    80203062:	f0b41223          	sh	a1,-252(s0)
    80203066:	f0c40323          	sb	a2,-250(s0)
    8020306a:	018a05b3          	add	a1,s4,s8
    8020306e:	037a8533          	mul	a0,s5,s7
    80203072:	9552                	add	a0,a0,s4
    80203074:	037d0633          	mul	a2,s10,s7
    80203078:	0001c097          	auipc	ra,0x1c
    8020307c:	088080e7          	jalr	136(ra) # 8021f100 <memmove>
    80203080:	018a04b3          	add	s1,s4,s8
    80203084:	f5040593          	addi	a1,s0,-176
    80203088:	04800613          	li	a2,72
    8020308c:	8526                	mv	a0,s1
    8020308e:	0001c097          	auipc	ra,0x1c
    80203092:	33c080e7          	jalr	828(ra) # 8021f3ca <memcpy>
    80203096:	e3043503          	ld	a0,-464(s0)
    8020309a:	04a48423          	sb	a0,72(s1)
    8020309e:	f0040503          	lb	a0,-256(s0)
    802030a2:	04a484a3          	sb	a0,73(s1)
    802030a6:	f0140503          	lb	a0,-255(s0)
    802030aa:	04a48523          	sb	a0,74(s1)
    802030ae:	f0240503          	lb	a0,-254(s0)
    802030b2:	04a485a3          	sb	a0,75(s1)
    802030b6:	f0340503          	lb	a0,-253(s0)
    802030ba:	04a48623          	sb	a0,76(s1)
    802030be:	f0440503          	lb	a0,-252(s0)
    802030c2:	04a486a3          	sb	a0,77(s1)
    802030c6:	f0540503          	lb	a0,-251(s0)
    802030ca:	04a48723          	sb	a0,78(s1)
    802030ce:	f0640503          	lb	a0,-250(s0)
    802030d2:	04a487a3          	sb	a0,79(s1)
    802030d6:	00298c13          	addi	s8,s3,2
    802030da:	00290513          	addi	a0,s2,2
    802030de:	3d8a0493          	addi	s1,s4,984
    802030e2:	01857c63          	bgeu	a0,s8,802030fa <_ZN5alloc11collections5btree4node210Handle$LT$alloc..collections..btree..node..NodeRef$LT$alloc..collections..btree..node..marker..Mut$C$K$C$V$C$alloc..collections..btree..node..marker..Leaf$GT$$C$alloc..collections..btree..node..marker..Edge$GT$16insert_recursing17h2c21b6401ef358ccE+0x61e>
    802030e6:	019485b3          	add	a1,s1,s9
    802030ea:	050e                	slli	a0,a0,0x3
    802030ec:	9526                	add	a0,a0,s1
    802030ee:	003d1613          	slli	a2,s10,0x3
    802030f2:	0001c097          	auipc	ra,0x1c
    802030f6:	00e080e7          	jalr	14(ra) # 8021f100 <memmove>
    802030fa:	00198513          	addi	a0,s3,1
    802030fe:	019485b3          	add	a1,s1,s9
    80203102:	e3843603          	ld	a2,-456(s0)
    80203106:	e190                	sd	a2,0(a1)
    80203108:	3caa1923          	sh	a0,978(s4)
    8020310c:	018aff63          	bgeu	s5,s8,8020312a <_ZN5alloc11collections5btree4node210Handle$LT$alloc..collections..btree..node..NodeRef$LT$alloc..collections..btree..node..marker..Mut$C$K$C$V$C$alloc..collections..btree..node..marker..Leaf$GT$$C$alloc..collections..btree..node..marker..Edge$GT$16insert_recursing17h2c21b6401ef358ccE+0x64e>
    80203110:	01ba05b3          	add	a1,s4,s11
    80203114:	3e058593          	addi	a1,a1,992
    80203118:	6190                	ld	a2,0(a1)
    8020311a:	0905                	addi	s2,s2,1
    8020311c:	37463823          	sd	s4,880(a2)
    80203120:	3d261823          	sh	s2,976(a2)
    80203124:	05a1                	addi	a1,a1,8
    80203126:	ff2519e3          	bne	a0,s2,80203118 <_ZN5alloc11collections5btree4node210Handle$LT$alloc..collections..btree..node..NodeRef$LT$alloc..collections..btree..node..marker..Mut$C$K$C$V$C$alloc..collections..btree..node..marker..Leaf$GT$$C$alloc..collections..btree..node..marker..Edge$GT$16insert_recursing17h2c21b6401ef358ccE+0x63c>
    8020312a:	e4843983          	ld	s3,-440(s0)
    8020312e:	e5043a83          	ld	s5,-432(s0)
    80203132:	4509                	li	a0,2
    80203134:	22a98463          	beq	s3,a0,8020335c <_ZN5alloc11collections5btree4node210Handle$LT$alloc..collections..btree..node..NodeRef$LT$alloc..collections..btree..node..marker..Mut$C$K$C$V$C$alloc..collections..btree..node..marker..Leaf$GT$$C$alloc..collections..btree..node..marker..Edge$GT$16insert_recursing17h2c21b6401ef358ccE+0x880>
    80203138:	05000d93          	li	s11,80
    8020313c:	e6040513          	addi	a0,s0,-416
    80203140:	eb040593          	addi	a1,s0,-336
    80203144:	04800613          	li	a2,72
    80203148:	0001c097          	auipc	ra,0x1c
    8020314c:	282080e7          	jalr	642(ra) # 8021f3ca <memcpy>
    80203150:	ea842503          	lw	a0,-344(s0)
    80203154:	eac41583          	lh	a1,-340(s0)
    80203158:	eae40603          	lb	a2,-338(s0)
    8020315c:	e4a42c23          	sw	a0,-424(s0)
    80203160:	e4b41e23          	sh	a1,-420(s0)
    80203164:	e4c40f23          	sb	a2,-418(s0)
    80203168:	370ab503          	ld	a0,880(s5)
    8020316c:	85d6                	mv	a1,s5
    8020316e:	e1843b83          	ld	s7,-488(s0)
    80203172:	865e                	mv	a2,s7
    80203174:	895a                	mv	s2,s6
    80203176:	e4043483          	ld	s1,-448(s0)
    8020317a:	8c26                	mv	s8,s1
    8020317c:	8cce                	mv	s9,s3
    8020317e:	8a5e                	mv	s4,s7
    80203180:	c60518e3          	bnez	a0,80202df0 <_ZN5alloc11collections5btree4node210Handle$LT$alloc..collections..btree..node..NodeRef$LT$alloc..collections..btree..node..marker..Mut$C$K$C$V$C$alloc..collections..btree..node..marker..Leaf$GT$$C$alloc..collections..btree..node..marker..Edge$GT$16insert_recursing17h2c21b6401ef358ccE+0x314>
    80203184:	a021                	j	8020318c <_ZN5alloc11collections5btree4node210Handle$LT$alloc..collections..btree..node..NodeRef$LT$alloc..collections..btree..node..marker..Mut$C$K$C$V$C$alloc..collections..btree..node..marker..Leaf$GT$$C$alloc..collections..btree..node..marker..Edge$GT$16insert_recursing17h2c21b6401ef358ccE+0x6b0>
    80203186:	4b81                	li	s7,0
    80203188:	e4043483          	ld	s1,-448(s0)
    8020318c:	e1043903          	ld	s2,-496(s0)
    80203190:	02890513          	addi	a0,s2,40
    80203194:	e6040593          	addi	a1,s0,-416
    80203198:	04800613          	li	a2,72
    8020319c:	0001c097          	auipc	ra,0x1c
    802031a0:	22e080e7          	jalr	558(ra) # 8021f3ca <memcpy>
    802031a4:	e5840503          	lb	a0,-424(s0)
    802031a8:	e5940583          	lb	a1,-423(s0)
    802031ac:	e5a40603          	lb	a2,-422(s0)
    802031b0:	06a908a3          	sb	a0,113(s2)
    802031b4:	06b90923          	sb	a1,114(s2)
    802031b8:	06c909a3          	sb	a2,115(s2)
    802031bc:	e5b40503          	lb	a0,-421(s0)
    802031c0:	e5c40583          	lb	a1,-420(s0)
    802031c4:	e5d40603          	lb	a2,-419(s0)
    802031c8:	e5e40683          	lb	a3,-418(s0)
    802031cc:	06a90a23          	sb	a0,116(s2)
    802031d0:	06b90aa3          	sb	a1,117(s2)
    802031d4:	06c90b23          	sb	a2,118(s2)
    802031d8:	06d90ba3          	sb	a3,119(s2)
    802031dc:	01493023          	sd	s4,0(s2)
    802031e0:	01593423          	sd	s5,8(s2)
    802031e4:	01793823          	sd	s7,16(s2)
    802031e8:	01693c23          	sd	s6,24(s2)
    802031ec:	02993023          	sd	s1,32(s2)
    802031f0:	07390823          	sb	s3,112(s2)
    802031f4:	e0843503          	ld	a0,-504(s0)
    802031f8:	06a93c23          	sd	a0,120(s2)
    802031fc:	b671                	j	80202d88 <_ZN5alloc11collections5btree4node210Handle$LT$alloc..collections..btree..node..NodeRef$LT$alloc..collections..btree..node..marker..Mut$C$K$C$V$C$alloc..collections..btree..node..marker..Leaf$GT$$C$alloc..collections..btree..node..marker..Edge$GT$16insert_recursing17h2c21b6401ef358ccE+0x2ac>
    802031fe:	37848513          	addi	a0,s1,888
    80203202:	001d0993          	addi	s3,s10,1
    80203206:	003d1d93          	slli	s11,s10,0x3
    8020320a:	01b50a33          	add	s4,a0,s11
    8020320e:	00399b13          	slli	s6,s3,0x3
    80203212:	41aa8bb3          	sub	s7,s5,s10
    80203216:	e5743823          	sd	s7,-432(s0)
    8020321a:	075d7263          	bgeu	s10,s5,8020327e <_ZN5alloc11collections5btree4node210Handle$LT$alloc..collections..btree..node..NodeRef$LT$alloc..collections..btree..node..marker..Mut$C$K$C$V$C$alloc..collections..btree..node..marker..Leaf$GT$$C$alloc..collections..btree..node..marker..Edge$GT$16insert_recursing17h2c21b6401ef358ccE+0x7a2>
    8020321e:	955a                	add	a0,a0,s6
    80203220:	003b9613          	slli	a2,s7,0x3
    80203224:	85d2                	mv	a1,s4
    80203226:	0001c097          	auipc	ra,0x1c
    8020322a:	eda080e7          	jalr	-294(ra) # 8021f100 <memmove>
    8020322e:	018a3023          	sd	s8,0(s4)
    80203232:	f5040513          	addi	a0,s0,-176
    80203236:	e6040593          	addi	a1,s0,-416
    8020323a:	04800613          	li	a2,72
    8020323e:	0001c097          	auipc	ra,0x1c
    80203242:	18c080e7          	jalr	396(ra) # 8021f3ca <memcpy>
    80203246:	e5842503          	lw	a0,-424(s0)
    8020324a:	e5c41583          	lh	a1,-420(s0)
    8020324e:	e5e40603          	lb	a2,-418(s0)
    80203252:	f0a42023          	sw	a0,-256(s0)
    80203256:	f0b41223          	sh	a1,-252(s0)
    8020325a:	f0c40323          	sb	a2,-250(s0)
    8020325e:	05000613          	li	a2,80
    80203262:	02cd0533          	mul	a0,s10,a2
    80203266:	00a485b3          	add	a1,s1,a0
    8020326a:	02c98533          	mul	a0,s3,a2
    8020326e:	9526                	add	a0,a0,s1
    80203270:	02cb8633          	mul	a2,s7,a2
    80203274:	0001c097          	auipc	ra,0x1c
    80203278:	e8c080e7          	jalr	-372(ra) # 8021f100 <memmove>
    8020327c:	a80d                	j	802032ae <_ZN5alloc11collections5btree4node210Handle$LT$alloc..collections..btree..node..NodeRef$LT$alloc..collections..btree..node..marker..Mut$C$K$C$V$C$alloc..collections..btree..node..marker..Leaf$GT$$C$alloc..collections..btree..node..marker..Edge$GT$16insert_recursing17h2c21b6401ef358ccE+0x7d2>
    8020327e:	018a3023          	sd	s8,0(s4)
    80203282:	f5040513          	addi	a0,s0,-176
    80203286:	e6040593          	addi	a1,s0,-416
    8020328a:	04800613          	li	a2,72
    8020328e:	0001c097          	auipc	ra,0x1c
    80203292:	13c080e7          	jalr	316(ra) # 8021f3ca <memcpy>
    80203296:	e5842503          	lw	a0,-424(s0)
    8020329a:	e5c41583          	lh	a1,-420(s0)
    8020329e:	e5e40603          	lb	a2,-418(s0)
    802032a2:	f0a42023          	sw	a0,-256(s0)
    802032a6:	f0b41223          	sh	a1,-252(s0)
    802032aa:	f0c40323          	sb	a2,-250(s0)
    802032ae:	001a8c13          	addi	s8,s5,1
    802032b2:	05000513          	li	a0,80
    802032b6:	02ad0533          	mul	a0,s10,a0
    802032ba:	00a48a33          	add	s4,s1,a0
    802032be:	f5040593          	addi	a1,s0,-176
    802032c2:	04800613          	li	a2,72
    802032c6:	8552                	mv	a0,s4
    802032c8:	0001c097          	auipc	ra,0x1c
    802032cc:	102080e7          	jalr	258(ra) # 8021f3ca <memcpy>
    802032d0:	059a0423          	sb	s9,72(s4)
    802032d4:	f0040503          	lb	a0,-256(s0)
    802032d8:	04aa04a3          	sb	a0,73(s4)
    802032dc:	f0140503          	lb	a0,-255(s0)
    802032e0:	04aa0523          	sb	a0,74(s4)
    802032e4:	f0240503          	lb	a0,-254(s0)
    802032e8:	04aa05a3          	sb	a0,75(s4)
    802032ec:	f0340503          	lb	a0,-253(s0)
    802032f0:	04aa0623          	sb	a0,76(s4)
    802032f4:	f0440503          	lb	a0,-252(s0)
    802032f8:	04aa06a3          	sb	a0,77(s4)
    802032fc:	f0540503          	lb	a0,-251(s0)
    80203300:	04aa0723          	sb	a0,78(s4)
    80203304:	f0640503          	lb	a0,-250(s0)
    80203308:	04aa07a3          	sb	a0,79(s4)
    8020330c:	002a8a13          	addi	s4,s5,2
    80203310:	8ba6                	mv	s7,s1
    80203312:	3d848c93          	addi	s9,s1,984
    80203316:	015d7e63          	bgeu	s10,s5,80203332 <_ZN5alloc11collections5btree4node210Handle$LT$alloc..collections..btree..node..NodeRef$LT$alloc..collections..btree..node..marker..Mut$C$K$C$V$C$alloc..collections..btree..node..marker..Leaf$GT$$C$alloc..collections..btree..node..marker..Edge$GT$16insert_recursing17h2c21b6401ef358ccE+0x856>
    8020331a:	016c85b3          	add	a1,s9,s6
    8020331e:	019d8533          	add	a0,s11,s9
    80203322:	0541                	addi	a0,a0,16
    80203324:	e5043603          	ld	a2,-432(s0)
    80203328:	060e                	slli	a2,a2,0x3
    8020332a:	0001c097          	auipc	ra,0x1c
    8020332e:	dd6080e7          	jalr	-554(ra) # 8021f100 <memmove>
    80203332:	016c8533          	add	a0,s9,s6
    80203336:	01253023          	sd	s2,0(a0)
    8020333a:	3d8b9923          	sh	s8,978(s7)
    8020333e:	0149ff63          	bgeu	s3,s4,8020335c <_ZN5alloc11collections5btree4node210Handle$LT$alloc..collections..btree..node..NodeRef$LT$alloc..collections..btree..node..marker..Mut$C$K$C$V$C$alloc..collections..btree..node..marker..Leaf$GT$$C$alloc..collections..btree..node..marker..Edge$GT$16insert_recursing17h2c21b6401ef358ccE+0x880>
    80203342:	01bb8533          	add	a0,s7,s11
    80203346:	3e050513          	addi	a0,a0,992
    8020334a:	610c                	ld	a1,0(a0)
    8020334c:	0d05                	addi	s10,s10,1
    8020334e:	3775b823          	sd	s7,880(a1)
    80203352:	3da59823          	sh	s10,976(a1)
    80203356:	0521                	addi	a0,a0,8
    80203358:	ffac19e3          	bne	s8,s10,8020334a <_ZN5alloc11collections5btree4node210Handle$LT$alloc..collections..btree..node..NodeRef$LT$alloc..collections..btree..node..marker..Mut$C$K$C$V$C$alloc..collections..btree..node..marker..Leaf$GT$$C$alloc..collections..btree..node..marker..Edge$GT$16insert_recursing17h2c21b6401ef358ccE+0x86e>
    8020335c:	4509                	li	a0,2
    8020335e:	e1043583          	ld	a1,-496(s0)
    80203362:	06a58823          	sb	a0,112(a1)
    80203366:	e0843503          	ld	a0,-504(s0)
    8020336a:	fda8                	sd	a0,120(a1)
    8020336c:	bc31                	j	80202d88 <_ZN5alloc11collections5btree4node210Handle$LT$alloc..collections..btree..node..NodeRef$LT$alloc..collections..btree..node..marker..Mut$C$K$C$V$C$alloc..collections..btree..node..marker..Leaf$GT$$C$alloc..collections..btree..node..marker..Edge$GT$16insert_recursing17h2c21b6401ef358ccE+0x2ac>

000000008020336e <.LBB49_59>:
    8020336e:	0001d517          	auipc	a0,0x1d
    80203372:	eb250513          	addi	a0,a0,-334 # 80220220 <.Lanon.d6099a4703f55f35884a06451ebc7765.14>

0000000080203376 <.LBB49_60>:
    80203376:	0001d617          	auipc	a2,0x1d
    8020337a:	ed260613          	addi	a2,a2,-302 # 80220248 <.Lanon.d6099a4703f55f35884a06451ebc7765.15>
    8020337e:	02800593          	li	a1,40
    80203382:	00019097          	auipc	ra,0x19
    80203386:	e0c080e7          	jalr	-500(ra) # 8021c18e <_ZN4core9panicking5panic17h183aba44d01f42adE>
	...

000000008020338c <.LBB49_61>:
    8020338c:	0001d517          	auipc	a0,0x1d
    80203390:	f0450513          	addi	a0,a0,-252 # 80220290 <.Lanon.d6099a4703f55f35884a06451ebc7765.18>

0000000080203394 <.LBB49_62>:
    80203394:	0001d617          	auipc	a2,0x1d
    80203398:	f3460613          	addi	a2,a2,-204 # 802202c8 <.Lanon.d6099a4703f55f35884a06451ebc7765.19>
    8020339c:	03500593          	li	a1,53
    802033a0:	00019097          	auipc	ra,0x19
    802033a4:	dee080e7          	jalr	-530(ra) # 8021c18e <_ZN4core9panicking5panic17h183aba44d01f42adE>
    802033a8:	0000                	unimp
    802033aa:	43800513          	li	a0,1080
    802033ae:	a805                	j	802033de <.LBB49_64+0x18>

00000000802033b0 <.LBB49_63>:
    802033b0:	0001d617          	auipc	a2,0x1d
    802033b4:	eb060613          	addi	a2,a2,-336 # 80220260 <.Lanon.d6099a4703f55f35884a06451ebc7765.16>
    802033b8:	45ad                	li	a1,11
    802033ba:	8552                	mv	a0,s4
    802033bc:	0001a097          	auipc	ra,0x1a
    802033c0:	6cc080e7          	jalr	1740(ra) # 8021da88 <_ZN4core5slice5index24slice_end_index_len_fail17he5846e131809ee70E>
	...

00000000802033c6 <.LBB49_64>:
    802033c6:	0001d617          	auipc	a2,0x1d
    802033ca:	eb260613          	addi	a2,a2,-334 # 80220278 <.Lanon.d6099a4703f55f35884a06451ebc7765.17>
    802033ce:	45b1                	li	a1,12
    802033d0:	0001a097          	auipc	ra,0x1a
    802033d4:	6b8080e7          	jalr	1720(ra) # 8021da88 <_ZN4core5slice5index24slice_end_index_len_fail17he5846e131809ee70E>
    802033d8:	0000                	unimp
    802033da:	3d800513          	li	a0,984
    802033de:	45a1                	li	a1,8
    802033e0:	00019097          	auipc	ra,0x19
    802033e4:	a12080e7          	jalr	-1518(ra) # 8021bdf2 <_ZN5alloc5alloc18handle_alloc_error17h3b12d3b52c903b1cE>
	...

00000000802033ea <.LBB49_65>:
    802033ea:	0001d617          	auipc	a2,0x1d
    802033ee:	e7660613          	addi	a2,a2,-394 # 80220260 <.Lanon.d6099a4703f55f35884a06451ebc7765.16>
    802033f2:	45ad                	li	a1,11
    802033f4:	8556                	mv	a0,s5
    802033f6:	0001a097          	auipc	ra,0x1a
    802033fa:	692080e7          	jalr	1682(ra) # 8021da88 <_ZN4core5slice5index24slice_end_index_len_fail17he5846e131809ee70E>
	...

0000000080203400 <_ZN5alloc11collections5btree4node210Handle$LT$alloc..collections..btree..node..NodeRef$LT$alloc..collections..btree..node..marker..Mut$C$K$C$V$C$alloc..collections..btree..node..marker..Leaf$GT$$C$alloc..collections..btree..node..marker..Edge$GT$16insert_recursing17ha665d9d955ae79dbE>:
    80203400:	7155                	addi	sp,sp,-208
    80203402:	e586                	sd	ra,200(sp)
    80203404:	e1a2                	sd	s0,192(sp)
    80203406:	fd26                	sd	s1,184(sp)
    80203408:	f94a                	sd	s2,176(sp)
    8020340a:	f54e                	sd	s3,168(sp)
    8020340c:	f152                	sd	s4,160(sp)
    8020340e:	ed56                	sd	s5,152(sp)
    80203410:	e95a                	sd	s6,144(sp)
    80203412:	e55e                	sd	s7,136(sp)
    80203414:	e162                	sd	s8,128(sp)
    80203416:	fce6                	sd	s9,120(sp)
    80203418:	f8ea                	sd	s10,112(sp)
    8020341a:	f4ee                	sd	s11,104(sp)
    8020341c:	0980                	addi	s0,sp,208
    8020341e:	87ae                	mv	a5,a1
    80203420:	0085ba83          	ld	s5,8(a1)
    80203424:	112adb83          	lhu	s7,274(s5)
    80203428:	698c                	ld	a1,16(a1)
    8020342a:	482d                	li	a6,11
    8020342c:	8dba                	mv	s11,a4
    8020342e:	8cb6                	mv	s9,a3
    80203430:	8d32                	mv	s10,a2
    80203432:	84aa                	mv	s1,a0
    80203434:	030bf163          	bgeu	s7,a6,80203456 <_ZN5alloc11collections5btree4node210Handle$LT$alloc..collections..btree..node..NodeRef$LT$alloc..collections..btree..node..marker..Mut$C$K$C$V$C$alloc..collections..btree..node..marker..Leaf$GT$$C$alloc..collections..btree..node..marker..Edge$GT$16insert_recursing17ha665d9d955ae79dbE+0x56>
    80203438:	0b8a8513          	addi	a0,s5,184
    8020343c:	00158993          	addi	s3,a1,1
    80203440:	00359613          	slli	a2,a1,0x3
    80203444:	00c50933          	add	s2,a0,a2
    80203448:	00459a13          	slli	s4,a1,0x4
    8020344c:	0f3bf163          	bgeu	s7,s3,8020352e <_ZN5alloc11collections5btree4node210Handle$LT$alloc..collections..btree..node..NodeRef$LT$alloc..collections..btree..node..marker..Mut$C$K$C$V$C$alloc..collections..btree..node..marker..Leaf$GT$$C$alloc..collections..btree..node..marker..Edge$GT$16insert_recursing17ha665d9d955ae79dbE+0x12e>
    80203450:	01a93023          	sd	s10,0(s2)
    80203454:	a231                	j	80203560 <_ZN5alloc11collections5btree4node210Handle$LT$alloc..collections..btree..node..NodeRef$LT$alloc..collections..btree..node..marker..Mut$C$K$C$V$C$alloc..collections..btree..node..marker..Leaf$GT$$C$alloc..collections..btree..node..marker..Edge$GT$16insert_recursing17ha665d9d955ae79dbE+0x160>
    80203456:	f2943c23          	sd	s1,-200(s0)
    8020345a:	6384                	ld	s1,0(a5)
    8020345c:	f8040513          	addi	a0,s0,-128
    80203460:	00019097          	auipc	ra,0x19
    80203464:	9ae080e7          	jalr	-1618(ra) # 8021be0e <_ZN5alloc11collections5btree4node10splitpoint17hbfc66533d6122a33E>
    80203468:	f8043c03          	ld	s8,-128(s0)
    8020346c:	f8843903          	ld	s2,-120(s0)
    80203470:	f9043a03          	ld	s4,-112(s0)
    80203474:	11800513          	li	a0,280
    80203478:	45a1                	li	a1,8
    8020347a:	00012097          	auipc	ra,0x12
    8020347e:	25a080e7          	jalr	602(ra) # 802156d4 <__rust_alloc>
    80203482:	50050363          	beqz	a0,80203988 <.LBB50_58+0x14>
    80203486:	8baa                	mv	s7,a0
    80203488:	f7b43c23          	sd	s11,-136(s0)
    8020348c:	0a053823          	sd	zero,176(a0)
    80203490:	112ad503          	lhu	a0,274(s5)
    80203494:	fffc4593          	not	a1,s8
    80203498:	00b50b33          	add	s6,a0,a1
    8020349c:	45b1                	li	a1,12
    8020349e:	116b9923          	sh	s6,274(s7)
    802034a2:	4ebb7b63          	bgeu	s6,a1,80203998 <.LBB50_59>
    802034a6:	001c0d93          	addi	s11,s8,1
    802034aa:	41b50533          	sub	a0,a0,s11
    802034ae:	47651263          	bne	a0,s6,80203912 <.LBB50_53>
    802034b2:	0b8a8593          	addi	a1,s5,184
    802034b6:	003c1513          	slli	a0,s8,0x3
    802034ba:	952e                	add	a0,a0,a1
    802034bc:	6108                	ld	a0,0(a0)
    802034be:	f6a43423          	sd	a0,-152(s0)
    802034c2:	004c1513          	slli	a0,s8,0x4
    802034c6:	9556                	add	a0,a0,s5
    802034c8:	6110                	ld	a2,0(a0)
    802034ca:	f6c43023          	sd	a2,-160(s0)
    802034ce:	6508                	ld	a0,8(a0)
    802034d0:	f6a43823          	sd	a0,-144(s0)
    802034d4:	0b8b8513          	addi	a0,s7,184
    802034d8:	003d9613          	slli	a2,s11,0x3
    802034dc:	95b2                	add	a1,a1,a2
    802034de:	003b1613          	slli	a2,s6,0x3
    802034e2:	0001c097          	auipc	ra,0x1c
    802034e6:	ee8080e7          	jalr	-280(ra) # 8021f3ca <memcpy>
    802034ea:	004d9513          	slli	a0,s11,0x4
    802034ee:	00aa85b3          	add	a1,s5,a0
    802034f2:	004b1613          	slli	a2,s6,0x4
    802034f6:	855e                	mv	a0,s7
    802034f8:	0001c097          	auipc	ra,0x1c
    802034fc:	ed2080e7          	jalr	-302(ra) # 8021f3ca <memcpy>
    80203500:	118a9923          	sh	s8,274(s5)
    80203504:	8b56                	mv	s6,s5
    80203506:	00090363          	beqz	s2,8020350c <_ZN5alloc11collections5btree4node210Handle$LT$alloc..collections..btree..node..NodeRef$LT$alloc..collections..btree..node..marker..Mut$C$K$C$V$C$alloc..collections..btree..node..marker..Leaf$GT$$C$alloc..collections..btree..node..marker..Edge$GT$16insert_recursing17ha665d9d955ae79dbE+0x10c>
    8020350a:	8b5e                	mv	s6,s7
    8020350c:	112b5c03          	lhu	s8,274(s6)
    80203510:	0b8b0513          	addi	a0,s6,184
    80203514:	001a0993          	addi	s3,s4,1
    80203518:	003a1593          	slli	a1,s4,0x3
    8020351c:	00b50933          	add	s2,a0,a1
    80203520:	004a1d93          	slli	s11,s4,0x4
    80203524:	053c7b63          	bgeu	s8,s3,8020357a <_ZN5alloc11collections5btree4node210Handle$LT$alloc..collections..btree..node..NodeRef$LT$alloc..collections..btree..node..marker..Mut$C$K$C$V$C$alloc..collections..btree..node..marker..Leaf$GT$$C$alloc..collections..btree..node..marker..Edge$GT$16insert_recursing17ha665d9d955ae79dbE+0x17a>
    80203528:	01a93023          	sd	s10,0(s2)
    8020352c:	a041                	j	802035ac <_ZN5alloc11collections5btree4node210Handle$LT$alloc..collections..btree..node..NodeRef$LT$alloc..collections..btree..node..marker..Mut$C$K$C$V$C$alloc..collections..btree..node..marker..Leaf$GT$$C$alloc..collections..btree..node..marker..Edge$GT$16insert_recursing17ha665d9d955ae79dbE+0x1ac>
    8020352e:	00399613          	slli	a2,s3,0x3
    80203532:	9532                	add	a0,a0,a2
    80203534:	40bb8b33          	sub	s6,s7,a1
    80203538:	003b1613          	slli	a2,s6,0x3
    8020353c:	85ca                	mv	a1,s2
    8020353e:	0001c097          	auipc	ra,0x1c
    80203542:	bc2080e7          	jalr	-1086(ra) # 8021f100 <memmove>
    80203546:	01a93023          	sd	s10,0(s2)
    8020354a:	014a85b3          	add	a1,s5,s4
    8020354e:	00499513          	slli	a0,s3,0x4
    80203552:	9556                	add	a0,a0,s5
    80203554:	004b1613          	slli	a2,s6,0x4
    80203558:	0001c097          	auipc	ra,0x1c
    8020355c:	ba8080e7          	jalr	-1112(ra) # 8021f100 <memmove>
    80203560:	001b851b          	addiw	a0,s7,1
    80203564:	014a85b3          	add	a1,s5,s4
    80203568:	0195b023          	sd	s9,0(a1)
    8020356c:	01b5b423          	sd	s11,8(a1)
    80203570:	10aa9923          	sh	a0,274(s5)
    80203574:	0004b423          	sd	zero,8(s1)
    80203578:	aead                	j	802038f2 <_ZN5alloc11collections5btree4node210Handle$LT$alloc..collections..btree..node..NodeRef$LT$alloc..collections..btree..node..marker..Mut$C$K$C$V$C$alloc..collections..btree..node..marker..Leaf$GT$$C$alloc..collections..btree..node..marker..Edge$GT$16insert_recursing17ha665d9d955ae79dbE+0x4f2>
    8020357a:	00399593          	slli	a1,s3,0x3
    8020357e:	952e                	add	a0,a0,a1
    80203580:	414c0a33          	sub	s4,s8,s4
    80203584:	003a1613          	slli	a2,s4,0x3
    80203588:	85ca                	mv	a1,s2
    8020358a:	0001c097          	auipc	ra,0x1c
    8020358e:	b76080e7          	jalr	-1162(ra) # 8021f100 <memmove>
    80203592:	01a93023          	sd	s10,0(s2)
    80203596:	01bb05b3          	add	a1,s6,s11
    8020359a:	00499513          	slli	a0,s3,0x4
    8020359e:	955a                	add	a0,a0,s6
    802035a0:	004a1613          	slli	a2,s4,0x4
    802035a4:	0001c097          	auipc	ra,0x1c
    802035a8:	b5c080e7          	jalr	-1188(ra) # 8021f100 <memmove>
    802035ac:	001c051b          	addiw	a0,s8,1
    802035b0:	01bb05b3          	add	a1,s6,s11
    802035b4:	0195b023          	sd	s9,0(a1)
    802035b8:	f2b43823          	sd	a1,-208(s0)
    802035bc:	f7843603          	ld	a2,-136(s0)
    802035c0:	e590                	sd	a2,8(a1)
    802035c2:	10ab1923          	sh	a0,274(s6)
    802035c6:	0b0ab503          	ld	a0,176(s5)
    802035ca:	f6843683          	ld	a3,-152(s0)
    802035ce:	f7043783          	ld	a5,-144(s0)
    802035d2:	22050a63          	beqz	a0,80203806 <_ZN5alloc11collections5btree4node210Handle$LT$alloc..collections..btree..node..NodeRef$LT$alloc..collections..btree..node..marker..Mut$C$K$C$V$C$alloc..collections..btree..node..marker..Leaf$GT$$C$alloc..collections..btree..node..marker..Edge$GT$16insert_recursing17ha665d9d955ae79dbE+0x406>
    802035d6:	4601                	li	a2,0
    802035d8:	89a6                	mv	s3,s1
    802035da:	85d6                	mv	a1,s5
    802035dc:	8dde                	mv	s11,s7
    802035de:	8a36                	mv	s4,a3
    802035e0:	f6043803          	ld	a6,-160(s0)
    802035e4:	8cbe                	mv	s9,a5
    802035e6:	a025                	j	8020360e <_ZN5alloc11collections5btree4node210Handle$LT$alloc..collections..btree..node..NodeRef$LT$alloc..collections..btree..node..marker..Mut$C$K$C$V$C$alloc..collections..btree..node..marker..Leaf$GT$$C$alloc..collections..btree..node..marker..Edge$GT$16insert_recursing17ha665d9d955ae79dbE+0x20e>
    802035e8:	0b0ab503          	ld	a0,176(s5)
    802035ec:	85d6                	mv	a1,s5
    802035ee:	f7843983          	ld	s3,-136(s0)
    802035f2:	864e                	mv	a2,s3
    802035f4:	8dde                	mv	s11,s7
    802035f6:	f6843683          	ld	a3,-152(s0)
    802035fa:	8a36                	mv	s4,a3
    802035fc:	f6043703          	ld	a4,-160(s0)
    80203600:	883a                	mv	a6,a4
    80203602:	f7043783          	ld	a5,-144(s0)
    80203606:	8cbe                	mv	s9,a5
    80203608:	84ce                	mv	s1,s3
    8020360a:	20050163          	beqz	a0,8020380c <_ZN5alloc11collections5btree4node210Handle$LT$alloc..collections..btree..node..NodeRef$LT$alloc..collections..btree..node..marker..Mut$C$K$C$V$C$alloc..collections..btree..node..marker..Leaf$GT$$C$alloc..collections..btree..node..marker..Edge$GT$16insert_recursing17ha665d9d955ae79dbE+0x40c>
    8020360e:	32c99163          	bne	s3,a2,80203930 <.LBB50_55>
    80203612:	8aaa                	mv	s5,a0
    80203614:	11255b03          	lhu	s6,274(a0)
    80203618:	1105d483          	lhu	s1,272(a1)
    8020361c:	452d                	li	a0,11
    8020361e:	f5943c23          	sd	s9,-168(s0)
    80203622:	f5043823          	sd	a6,-176(s0)
    80203626:	20ab6163          	bltu	s6,a0,80203828 <_ZN5alloc11collections5btree4node210Handle$LT$alloc..collections..btree..node..NodeRef$LT$alloc..collections..btree..node..marker..Mut$C$K$C$V$C$alloc..collections..btree..node..marker..Leaf$GT$$C$alloc..collections..btree..node..marker..Edge$GT$16insert_recursing17ha665d9d955ae79dbE+0x428>
    8020362a:	f5443423          	sd	s4,-184(s0)
    8020362e:	f8040513          	addi	a0,s0,-128
    80203632:	85a6                	mv	a1,s1
    80203634:	00018097          	auipc	ra,0x18
    80203638:	7da080e7          	jalr	2010(ra) # 8021be0e <_ZN5alloc11collections5btree4node10splitpoint17hbfc66533d6122a33E>
    8020363c:	f8043c03          	ld	s8,-128(s0)
    80203640:	f8843a03          	ld	s4,-120(s0)
    80203644:	f9043903          	ld	s2,-112(s0)
    80203648:	112adb03          	lhu	s6,274(s5)
    8020364c:	17800513          	li	a0,376
    80203650:	45a1                	li	a1,8
    80203652:	00012097          	auipc	ra,0x12
    80203656:	082080e7          	jalr	130(ra) # 802156d4 <__rust_alloc>
    8020365a:	2e050a63          	beqz	a0,8020394e <.LBB50_56+0x16>
    8020365e:	8baa                	mv	s7,a0
    80203660:	0a053823          	sd	zero,176(a0)
    80203664:	112ad503          	lhu	a0,274(s5)
    80203668:	fffc4593          	not	a1,s8
    8020366c:	00b504b3          	add	s1,a0,a1
    80203670:	109b9923          	sh	s1,274(s7)
    80203674:	45b1                	li	a1,12
    80203676:	2eb4f463          	bgeu	s1,a1,8020395e <.LBB50_57>
    8020367a:	f7343c23          	sd	s3,-136(s0)
    8020367e:	f5b43023          	sd	s11,-192(s0)
    80203682:	001c0c93          	addi	s9,s8,1
    80203686:	41950533          	sub	a0,a0,s9
    8020368a:	28951463          	bne	a0,s1,80203912 <.LBB50_53>
    8020368e:	0b8a8593          	addi	a1,s5,184
    80203692:	003c1513          	slli	a0,s8,0x3
    80203696:	952e                	add	a0,a0,a1
    80203698:	00053d03          	ld	s10,0(a0)
    8020369c:	004c1513          	slli	a0,s8,0x4
    802036a0:	9556                	add	a0,a0,s5
    802036a2:	00053d83          	ld	s11,0(a0)
    802036a6:	6508                	ld	a0,8(a0)
    802036a8:	f6a43823          	sd	a0,-144(s0)
    802036ac:	0b8b8513          	addi	a0,s7,184
    802036b0:	003c9993          	slli	s3,s9,0x3
    802036b4:	95ce                	add	a1,a1,s3
    802036b6:	00349613          	slli	a2,s1,0x3
    802036ba:	0001c097          	auipc	ra,0x1c
    802036be:	d10080e7          	jalr	-752(ra) # 8021f3ca <memcpy>
    802036c2:	004c9513          	slli	a0,s9,0x4
    802036c6:	00aa85b3          	add	a1,s5,a0
    802036ca:	00449613          	slli	a2,s1,0x4
    802036ce:	855e                	mv	a0,s7
    802036d0:	0001c097          	auipc	ra,0x1c
    802036d4:	cfa080e7          	jalr	-774(ra) # 8021f3ca <memcpy>
    802036d8:	118a9923          	sh	s8,274(s5)
    802036dc:	112bd483          	lhu	s1,274(s7)
    802036e0:	00148513          	addi	a0,s1,1
    802036e4:	45b1                	li	a1,12
    802036e6:	28b4f763          	bgeu	s1,a1,80203974 <.LBB50_58>
    802036ea:	418b0633          	sub	a2,s6,s8
    802036ee:	22a61263          	bne	a2,a0,80203912 <.LBB50_53>
    802036f2:	f7843503          	ld	a0,-136(s0)
    802036f6:	0505                	addi	a0,a0,1
    802036f8:	f6a43c23          	sd	a0,-136(s0)
    802036fc:	013a8533          	add	a0,s5,s3
    80203700:	11850593          	addi	a1,a0,280
    80203704:	118b8993          	addi	s3,s7,280
    80203708:	060e                	slli	a2,a2,0x3
    8020370a:	854e                	mv	a0,s3
    8020370c:	0001c097          	auipc	ra,0x1c
    80203710:	cbe080e7          	jalr	-834(ra) # 8021f3ca <memcpy>
    80203714:	4501                	li	a0,0
    80203716:	00351593          	slli	a1,a0,0x3
    8020371a:	95ce                	add	a1,a1,s3
    8020371c:	618c                	ld	a1,0(a1)
    8020371e:	00953633          	sltu	a2,a0,s1
    80203722:	00164693          	xori	a3,a2,1
    80203726:	10a59823          	sh	a0,272(a1)
    8020372a:	9532                	add	a0,a0,a2
    8020372c:	00a4b633          	sltu	a2,s1,a0
    80203730:	8e55                	or	a2,a2,a3
    80203732:	0b75b823          	sd	s7,176(a1)
    80203736:	d265                	beqz	a2,80203716 <_ZN5alloc11collections5btree4node210Handle$LT$alloc..collections..btree..node..NodeRef$LT$alloc..collections..btree..node..marker..Mut$C$K$C$V$C$alloc..collections..btree..node..marker..Leaf$GT$$C$alloc..collections..btree..node..marker..Edge$GT$16insert_recursing17ha665d9d955ae79dbE+0x316>
    80203738:	f7b43023          	sd	s11,-160(s0)
    8020373c:	f7a43423          	sd	s10,-152(s0)
    80203740:	8c56                	mv	s8,s5
    80203742:	000a0363          	beqz	s4,80203748 <_ZN5alloc11collections5btree4node210Handle$LT$alloc..collections..btree..node..NodeRef$LT$alloc..collections..btree..node..marker..Mut$C$K$C$V$C$alloc..collections..btree..node..marker..Leaf$GT$$C$alloc..collections..btree..node..marker..Edge$GT$16insert_recursing17ha665d9d955ae79dbE+0x348>
    80203746:	8c5e                	mv	s8,s7
    80203748:	112c5d83          	lhu	s11,274(s8)
    8020374c:	0b8c0513          	addi	a0,s8,184
    80203750:	00190b13          	addi	s6,s2,1
    80203754:	00391a13          	slli	s4,s2,0x3
    80203758:	014504b3          	add	s1,a0,s4
    8020375c:	00491c93          	slli	s9,s2,0x4
    80203760:	003b1d13          	slli	s10,s6,0x3
    80203764:	412d89b3          	sub	s3,s11,s2
    80203768:	016df663          	bgeu	s11,s6,80203774 <_ZN5alloc11collections5btree4node210Handle$LT$alloc..collections..btree..node..NodeRef$LT$alloc..collections..btree..node..marker..Mut$C$K$C$V$C$alloc..collections..btree..node..marker..Leaf$GT$$C$alloc..collections..btree..node..marker..Edge$GT$16insert_recursing17ha665d9d955ae79dbE+0x374>
    8020376c:	f4843503          	ld	a0,-184(s0)
    80203770:	e088                	sd	a0,0(s1)
    80203772:	a03d                	j	802037a0 <_ZN5alloc11collections5btree4node210Handle$LT$alloc..collections..btree..node..NodeRef$LT$alloc..collections..btree..node..marker..Mut$C$K$C$V$C$alloc..collections..btree..node..marker..Leaf$GT$$C$alloc..collections..btree..node..marker..Edge$GT$16insert_recursing17ha665d9d955ae79dbE+0x3a0>
    80203774:	956a                	add	a0,a0,s10
    80203776:	00399613          	slli	a2,s3,0x3
    8020377a:	85a6                	mv	a1,s1
    8020377c:	0001c097          	auipc	ra,0x1c
    80203780:	984080e7          	jalr	-1660(ra) # 8021f100 <memmove>
    80203784:	f4843503          	ld	a0,-184(s0)
    80203788:	e088                	sd	a0,0(s1)
    8020378a:	019c05b3          	add	a1,s8,s9
    8020378e:	004b1513          	slli	a0,s6,0x4
    80203792:	9562                	add	a0,a0,s8
    80203794:	00499613          	slli	a2,s3,0x4
    80203798:	0001c097          	auipc	ra,0x1c
    8020379c:	968080e7          	jalr	-1688(ra) # 8021f100 <memmove>
    802037a0:	f5043583          	ld	a1,-176(s0)
    802037a4:	019c0533          	add	a0,s8,s9
    802037a8:	e10c                	sd	a1,0(a0)
    802037aa:	f5843583          	ld	a1,-168(s0)
    802037ae:	e50c                	sd	a1,8(a0)
    802037b0:	002d8c93          	addi	s9,s11,2
    802037b4:	00290513          	addi	a0,s2,2
    802037b8:	118c0493          	addi	s1,s8,280
    802037bc:	01957c63          	bgeu	a0,s9,802037d4 <_ZN5alloc11collections5btree4node210Handle$LT$alloc..collections..btree..node..NodeRef$LT$alloc..collections..btree..node..marker..Mut$C$K$C$V$C$alloc..collections..btree..node..marker..Leaf$GT$$C$alloc..collections..btree..node..marker..Edge$GT$16insert_recursing17ha665d9d955ae79dbE+0x3d4>
    802037c0:	01a485b3          	add	a1,s1,s10
    802037c4:	050e                	slli	a0,a0,0x3
    802037c6:	9526                	add	a0,a0,s1
    802037c8:	00399613          	slli	a2,s3,0x3
    802037cc:	0001c097          	auipc	ra,0x1c
    802037d0:	934080e7          	jalr	-1740(ra) # 8021f100 <memmove>
    802037d4:	001d8513          	addi	a0,s11,1
    802037d8:	01a485b3          	add	a1,s1,s10
    802037dc:	f4043603          	ld	a2,-192(s0)
    802037e0:	e190                	sd	a2,0(a1)
    802037e2:	10ac1923          	sh	a0,274(s8)
    802037e6:	e19b71e3          	bgeu	s6,s9,802035e8 <_ZN5alloc11collections5btree4node210Handle$LT$alloc..collections..btree..node..NodeRef$LT$alloc..collections..btree..node..marker..Mut$C$K$C$V$C$alloc..collections..btree..node..marker..Leaf$GT$$C$alloc..collections..btree..node..marker..Edge$GT$16insert_recursing17ha665d9d955ae79dbE+0x1e8>
    802037ea:	014c05b3          	add	a1,s8,s4
    802037ee:	12058593          	addi	a1,a1,288
    802037f2:	6190                	ld	a2,0(a1)
    802037f4:	0905                	addi	s2,s2,1
    802037f6:	0b863823          	sd	s8,176(a2)
    802037fa:	11261823          	sh	s2,272(a2)
    802037fe:	05a1                	addi	a1,a1,8
    80203800:	ff2519e3          	bne	a0,s2,802037f2 <_ZN5alloc11collections5btree4node210Handle$LT$alloc..collections..btree..node..NodeRef$LT$alloc..collections..btree..node..marker..Mut$C$K$C$V$C$alloc..collections..btree..node..marker..Leaf$GT$$C$alloc..collections..btree..node..marker..Edge$GT$16insert_recursing17ha665d9d955ae79dbE+0x3f2>
    80203804:	b3d5                	j	802035e8 <_ZN5alloc11collections5btree4node210Handle$LT$alloc..collections..btree..node..NodeRef$LT$alloc..collections..btree..node..marker..Mut$C$K$C$V$C$alloc..collections..btree..node..marker..Leaf$GT$$C$alloc..collections..btree..node..marker..Edge$GT$16insert_recursing17ha665d9d955ae79dbE+0x1e8>
    80203806:	4981                	li	s3,0
    80203808:	f6043703          	ld	a4,-160(s0)
    8020380c:	f3843503          	ld	a0,-200(s0)
    80203810:	e104                	sd	s1,0(a0)
    80203812:	01553423          	sd	s5,8(a0)
    80203816:	01353823          	sd	s3,16(a0)
    8020381a:	01753c23          	sd	s7,24(a0)
    8020381e:	84aa                	mv	s1,a0
    80203820:	f114                	sd	a3,32(a0)
    80203822:	f518                	sd	a4,40(a0)
    80203824:	f91c                	sd	a5,48(a0)
    80203826:	a0e1                	j	802038ee <_ZN5alloc11collections5btree4node210Handle$LT$alloc..collections..btree..node..NodeRef$LT$alloc..collections..btree..node..marker..Mut$C$K$C$V$C$alloc..collections..btree..node..marker..Leaf$GT$$C$alloc..collections..btree..node..marker..Edge$GT$16insert_recursing17ha665d9d955ae79dbE+0x4ee>
    80203828:	001b0913          	addi	s2,s6,1
    8020382c:	0b8a8513          	addi	a0,s5,184
    80203830:	00148c13          	addi	s8,s1,1
    80203834:	00349b93          	slli	s7,s1,0x3
    80203838:	017509b3          	add	s3,a0,s7
    8020383c:	003c1d13          	slli	s10,s8,0x3
    80203840:	0764f363          	bgeu	s1,s6,802038a6 <_ZN5alloc11collections5btree4node210Handle$LT$alloc..collections..btree..node..NodeRef$LT$alloc..collections..btree..node..marker..Mut$C$K$C$V$C$alloc..collections..btree..node..marker..Leaf$GT$$C$alloc..collections..btree..node..marker..Edge$GT$16insert_recursing17ha665d9d955ae79dbE+0x4a6>
    80203844:	956a                	add	a0,a0,s10
    80203846:	409b0cb3          	sub	s9,s6,s1
    8020384a:	003c9613          	slli	a2,s9,0x3
    8020384e:	f6c43c23          	sd	a2,-136(s0)
    80203852:	85ce                	mv	a1,s3
    80203854:	0001c097          	auipc	ra,0x1c
    80203858:	8ac080e7          	jalr	-1876(ra) # 8021f100 <memmove>
    8020385c:	0149b023          	sd	s4,0(s3)
    80203860:	00449513          	slli	a0,s1,0x4
    80203864:	00aa89b3          	add	s3,s5,a0
    80203868:	004c1513          	slli	a0,s8,0x4
    8020386c:	9556                	add	a0,a0,s5
    8020386e:	004c9613          	slli	a2,s9,0x4
    80203872:	85ce                	mv	a1,s3
    80203874:	0001c097          	auipc	ra,0x1c
    80203878:	88c080e7          	jalr	-1908(ra) # 8021f100 <memmove>
    8020387c:	f5043503          	ld	a0,-176(s0)
    80203880:	00a9b023          	sd	a0,0(s3)
    80203884:	f5843503          	ld	a0,-168(s0)
    80203888:	00a9b423          	sd	a0,8(s3)
    8020388c:	118a8513          	addi	a0,s5,280
    80203890:	01a505b3          	add	a1,a0,s10
    80203894:	955e                	add	a0,a0,s7
    80203896:	0541                	addi	a0,a0,16
    80203898:	f7843603          	ld	a2,-136(s0)
    8020389c:	0001c097          	auipc	ra,0x1c
    802038a0:	864080e7          	jalr	-1948(ra) # 8021f100 <memmove>
    802038a4:	a811                	j	802038b8 <_ZN5alloc11collections5btree4node210Handle$LT$alloc..collections..btree..node..NodeRef$LT$alloc..collections..btree..node..marker..Mut$C$K$C$V$C$alloc..collections..btree..node..marker..Leaf$GT$$C$alloc..collections..btree..node..marker..Edge$GT$16insert_recursing17ha665d9d955ae79dbE+0x4b8>
    802038a6:	0149b023          	sd	s4,0(s3)
    802038aa:	00449513          	slli	a0,s1,0x4
    802038ae:	9556                	add	a0,a0,s5
    802038b0:	01053023          	sd	a6,0(a0)
    802038b4:	01953423          	sd	s9,8(a0)
    802038b8:	01aa8533          	add	a0,s5,s10
    802038bc:	002b0593          	addi	a1,s6,2
    802038c0:	11b53c23          	sd	s11,280(a0)
    802038c4:	112a9923          	sh	s2,274(s5)
    802038c8:	00bc7f63          	bgeu	s8,a1,802038e6 <_ZN5alloc11collections5btree4node210Handle$LT$alloc..collections..btree..node..NodeRef$LT$alloc..collections..btree..node..marker..Mut$C$K$C$V$C$alloc..collections..btree..node..marker..Leaf$GT$$C$alloc..collections..btree..node..marker..Edge$GT$16insert_recursing17ha665d9d955ae79dbE+0x4e6>
    802038cc:	017a8533          	add	a0,s5,s7
    802038d0:	12050513          	addi	a0,a0,288
    802038d4:	610c                	ld	a1,0(a0)
    802038d6:	0485                	addi	s1,s1,1
    802038d8:	0b55b823          	sd	s5,176(a1)
    802038dc:	10959823          	sh	s1,272(a1)
    802038e0:	0521                	addi	a0,a0,8
    802038e2:	fe9919e3          	bne	s2,s1,802038d4 <_ZN5alloc11collections5btree4node210Handle$LT$alloc..collections..btree..node..NodeRef$LT$alloc..collections..btree..node..marker..Mut$C$K$C$V$C$alloc..collections..btree..node..marker..Leaf$GT$$C$alloc..collections..btree..node..marker..Edge$GT$16insert_recursing17ha665d9d955ae79dbE+0x4d4>
    802038e6:	f3843483          	ld	s1,-200(s0)
    802038ea:	0004b423          	sd	zero,8(s1)
    802038ee:	f3043583          	ld	a1,-208(s0)
    802038f2:	fc8c                	sd	a1,56(s1)
    802038f4:	60ae                	ld	ra,200(sp)
    802038f6:	640e                	ld	s0,192(sp)
    802038f8:	74ea                	ld	s1,184(sp)
    802038fa:	794a                	ld	s2,176(sp)
    802038fc:	79aa                	ld	s3,168(sp)
    802038fe:	7a0a                	ld	s4,160(sp)
    80203900:	6aea                	ld	s5,152(sp)
    80203902:	6b4a                	ld	s6,144(sp)
    80203904:	6baa                	ld	s7,136(sp)
    80203906:	6c0a                	ld	s8,128(sp)
    80203908:	7ce6                	ld	s9,120(sp)
    8020390a:	7d46                	ld	s10,112(sp)
    8020390c:	7da6                	ld	s11,104(sp)
    8020390e:	6169                	addi	sp,sp,208
    80203910:	8082                	ret

0000000080203912 <.LBB50_53>:
    80203912:	0001d517          	auipc	a0,0x1d
    80203916:	90e50513          	addi	a0,a0,-1778 # 80220220 <.Lanon.d6099a4703f55f35884a06451ebc7765.14>

000000008020391a <.LBB50_54>:
    8020391a:	0001d617          	auipc	a2,0x1d
    8020391e:	92e60613          	addi	a2,a2,-1746 # 80220248 <.Lanon.d6099a4703f55f35884a06451ebc7765.15>
    80203922:	02800593          	li	a1,40
    80203926:	00019097          	auipc	ra,0x19
    8020392a:	868080e7          	jalr	-1944(ra) # 8021c18e <_ZN4core9panicking5panic17h183aba44d01f42adE>
	...

0000000080203930 <.LBB50_55>:
    80203930:	0001d517          	auipc	a0,0x1d
    80203934:	96050513          	addi	a0,a0,-1696 # 80220290 <.Lanon.d6099a4703f55f35884a06451ebc7765.18>

0000000080203938 <.LBB50_56>:
    80203938:	0001d617          	auipc	a2,0x1d
    8020393c:	99060613          	addi	a2,a2,-1648 # 802202c8 <.Lanon.d6099a4703f55f35884a06451ebc7765.19>
    80203940:	03500593          	li	a1,53
    80203944:	00019097          	auipc	ra,0x19
    80203948:	84a080e7          	jalr	-1974(ra) # 8021c18e <_ZN4core9panicking5panic17h183aba44d01f42adE>
    8020394c:	0000                	unimp
    8020394e:	17800513          	li	a0,376
    80203952:	45a1                	li	a1,8
    80203954:	00018097          	auipc	ra,0x18
    80203958:	49e080e7          	jalr	1182(ra) # 8021bdf2 <_ZN5alloc5alloc18handle_alloc_error17h3b12d3b52c903b1cE>
	...

000000008020395e <.LBB50_57>:
    8020395e:	0001d617          	auipc	a2,0x1d
    80203962:	90260613          	addi	a2,a2,-1790 # 80220260 <.Lanon.d6099a4703f55f35884a06451ebc7765.16>
    80203966:	45ad                	li	a1,11
    80203968:	8526                	mv	a0,s1
    8020396a:	0001a097          	auipc	ra,0x1a
    8020396e:	11e080e7          	jalr	286(ra) # 8021da88 <_ZN4core5slice5index24slice_end_index_len_fail17he5846e131809ee70E>
	...

0000000080203974 <.LBB50_58>:
    80203974:	0001d617          	auipc	a2,0x1d
    80203978:	90460613          	addi	a2,a2,-1788 # 80220278 <.Lanon.d6099a4703f55f35884a06451ebc7765.17>
    8020397c:	45b1                	li	a1,12
    8020397e:	0001a097          	auipc	ra,0x1a
    80203982:	10a080e7          	jalr	266(ra) # 8021da88 <_ZN4core5slice5index24slice_end_index_len_fail17he5846e131809ee70E>
    80203986:	0000                	unimp
    80203988:	11800513          	li	a0,280
    8020398c:	45a1                	li	a1,8
    8020398e:	00018097          	auipc	ra,0x18
    80203992:	464080e7          	jalr	1124(ra) # 8021bdf2 <_ZN5alloc5alloc18handle_alloc_error17h3b12d3b52c903b1cE>
	...

0000000080203998 <.LBB50_59>:
    80203998:	0001d617          	auipc	a2,0x1d
    8020399c:	8c860613          	addi	a2,a2,-1848 # 80220260 <.Lanon.d6099a4703f55f35884a06451ebc7765.16>
    802039a0:	45ad                	li	a1,11
    802039a2:	855a                	mv	a0,s6
    802039a4:	0001a097          	auipc	ra,0x1a
    802039a8:	0e4080e7          	jalr	228(ra) # 8021da88 <_ZN4core5slice5index24slice_end_index_len_fail17he5846e131809ee70E>
	...

00000000802039ae <_ZN5alloc11collections5btree4node210Handle$LT$alloc..collections..btree..node..NodeRef$LT$alloc..collections..btree..node..marker..Mut$C$K$C$V$C$alloc..collections..btree..node..marker..Leaf$GT$$C$alloc..collections..btree..node..marker..Edge$GT$16insert_recursing17hc219eb9ce8a318b9E>:
    802039ae:	7171                	addi	sp,sp,-176
    802039b0:	f506                	sd	ra,168(sp)
    802039b2:	f122                	sd	s0,160(sp)
    802039b4:	ed26                	sd	s1,152(sp)
    802039b6:	e94a                	sd	s2,144(sp)
    802039b8:	e54e                	sd	s3,136(sp)
    802039ba:	e152                	sd	s4,128(sp)
    802039bc:	fcd6                	sd	s5,120(sp)
    802039be:	f8da                	sd	s6,112(sp)
    802039c0:	f4de                	sd	s7,104(sp)
    802039c2:	f0e2                	sd	s8,96(sp)
    802039c4:	ece6                	sd	s9,88(sp)
    802039c6:	e8ea                	sd	s10,80(sp)
    802039c8:	e4ee                	sd	s11,72(sp)
    802039ca:	1900                	addi	s0,sp,176
    802039cc:	86ae                	mv	a3,a1
    802039ce:	0085bd83          	ld	s11,8(a1)
    802039d2:	062dd483          	lhu	s1,98(s11)
    802039d6:	698c                	ld	a1,16(a1)
    802039d8:	472d                	li	a4,11
    802039da:	89b2                	mv	s3,a2
    802039dc:	862a                	mv	a2,a0
    802039de:	04e4f463          	bgeu	s1,a4,80203a26 <_ZN5alloc11collections5btree4node210Handle$LT$alloc..collections..btree..node..NodeRef$LT$alloc..collections..btree..node..marker..Mut$C$K$C$V$C$alloc..collections..btree..node..marker..Leaf$GT$$C$alloc..collections..btree..node..marker..Edge$GT$16insert_recursing17hc219eb9ce8a318b9E+0x78>
    802039e2:	008d8913          	addi	s2,s11,8
    802039e6:	00158513          	addi	a0,a1,1
    802039ea:	00359a13          	slli	s4,a1,0x3
    802039ee:	02a4e163          	bltu	s1,a0,80203a10 <_ZN5alloc11collections5btree4node210Handle$LT$alloc..collections..btree..node..NodeRef$LT$alloc..collections..btree..node..marker..Mut$C$K$C$V$C$alloc..collections..btree..node..marker..Leaf$GT$$C$alloc..collections..btree..node..marker..Edge$GT$16insert_recursing17hc219eb9ce8a318b9E+0x62>
    802039f2:	014906b3          	add	a3,s2,s4
    802039f6:	050e                	slli	a0,a0,0x3
    802039f8:	954a                	add	a0,a0,s2
    802039fa:	40b485b3          	sub	a1,s1,a1
    802039fe:	8b32                	mv	s6,a2
    80203a00:	00359613          	slli	a2,a1,0x3
    80203a04:	85b6                	mv	a1,a3
    80203a06:	0001b097          	auipc	ra,0x1b
    80203a0a:	6fa080e7          	jalr	1786(ra) # 8021f100 <memmove>
    80203a0e:	865a                	mv	a2,s6
    80203a10:	0014851b          	addiw	a0,s1,1
    80203a14:	014905b3          	add	a1,s2,s4
    80203a18:	0135b023          	sd	s3,0(a1)
    80203a1c:	06ad9123          	sh	a0,98(s11)
    80203a20:	00063423          	sd	zero,8(a2)
    80203a24:	a62d                	j	80203d4e <_ZN5alloc11collections5btree4node210Handle$LT$alloc..collections..btree..node..NodeRef$LT$alloc..collections..btree..node..marker..Mut$C$K$C$V$C$alloc..collections..btree..node..marker..Leaf$GT$$C$alloc..collections..btree..node..marker..Edge$GT$16insert_recursing17hc219eb9ce8a318b9E+0x3a0>
    80203a26:	f6c43023          	sd	a2,-160(s0)
    80203a2a:	0006bd03          	ld	s10,0(a3)
    80203a2e:	f8040513          	addi	a0,s0,-128
    80203a32:	00018097          	auipc	ra,0x18
    80203a36:	3dc080e7          	jalr	988(ra) # 8021be0e <_ZN5alloc11collections5btree4node10splitpoint17hbfc66533d6122a33E>
    80203a3a:	f8043c03          	ld	s8,-128(s0)
    80203a3e:	f8843b03          	ld	s6,-120(s0)
    80203a42:	f9043903          	ld	s2,-112(s0)
    80203a46:	06800513          	li	a0,104
    80203a4a:	45a1                	li	a1,8
    80203a4c:	00012097          	auipc	ra,0x12
    80203a50:	c88080e7          	jalr	-888(ra) # 802156d4 <__rust_alloc>
    80203a54:	38050863          	beqz	a0,80203de4 <.LBB51_53+0x14>
    80203a58:	8a2a                	mv	s4,a0
    80203a5a:	00053023          	sd	zero,0(a0)
    80203a5e:	062dd603          	lhu	a2,98(s11)
    80203a62:	fffc4513          	not	a0,s8
    80203a66:	9532                	add	a0,a0,a2
    80203a68:	45b1                	li	a1,12
    80203a6a:	06aa1123          	sh	a0,98(s4)
    80203a6e:	32b57063          	bgeu	a0,a1,80203d8e <.LBB51_50>
    80203a72:	001c0593          	addi	a1,s8,1
    80203a76:	8e0d                	sub	a2,a2,a1
    80203a78:	2ea61c63          	bne	a2,a0,80203d70 <.LBB51_48>
    80203a7c:	8aee                	mv	s5,s11
    80203a7e:	008d8613          	addi	a2,s11,8
    80203a82:	003c1693          	slli	a3,s8,0x3
    80203a86:	96b2                	add	a3,a3,a2
    80203a88:	6284                	ld	s1,0(a3)
    80203a8a:	008a0693          	addi	a3,s4,8
    80203a8e:	058e                	slli	a1,a1,0x3
    80203a90:	95b2                	add	a1,a1,a2
    80203a92:	00351613          	slli	a2,a0,0x3
    80203a96:	8536                	mv	a0,a3
    80203a98:	0001c097          	auipc	ra,0x1c
    80203a9c:	932080e7          	jalr	-1742(ra) # 8021f3ca <memcpy>
    80203aa0:	078d9123          	sh	s8,98(s11)
    80203aa4:	866e                	mv	a2,s11
    80203aa6:	000b0363          	beqz	s6,80203aac <_ZN5alloc11collections5btree4node210Handle$LT$alloc..collections..btree..node..NodeRef$LT$alloc..collections..btree..node..marker..Mut$C$K$C$V$C$alloc..collections..btree..node..marker..Leaf$GT$$C$alloc..collections..btree..node..marker..Edge$GT$16insert_recursing17hc219eb9ce8a318b9E+0xfe>
    80203aaa:	8652                	mv	a2,s4
    80203aac:	06265b03          	lhu	s6,98(a2)
    80203ab0:	00860b93          	addi	s7,a2,8
    80203ab4:	00190513          	addi	a0,s2,1
    80203ab8:	00391c13          	slli	s8,s2,0x3
    80203abc:	00ab6f63          	bltu	s6,a0,80203ada <_ZN5alloc11collections5btree4node210Handle$LT$alloc..collections..btree..node..NodeRef$LT$alloc..collections..btree..node..marker..Mut$C$K$C$V$C$alloc..collections..btree..node..marker..Leaf$GT$$C$alloc..collections..btree..node..marker..Edge$GT$16insert_recursing17hc219eb9ce8a318b9E+0x12c>
    80203ac0:	018b85b3          	add	a1,s7,s8
    80203ac4:	050e                	slli	a0,a0,0x3
    80203ac6:	955e                	add	a0,a0,s7
    80203ac8:	8cb2                	mv	s9,a2
    80203aca:	412b0633          	sub	a2,s6,s2
    80203ace:	060e                	slli	a2,a2,0x3
    80203ad0:	0001b097          	auipc	ra,0x1b
    80203ad4:	630080e7          	jalr	1584(ra) # 8021f100 <memmove>
    80203ad8:	8666                	mv	a2,s9
    80203ada:	001b051b          	addiw	a0,s6,1
    80203ade:	018b85b3          	add	a1,s7,s8
    80203ae2:	0135b023          	sd	s3,0(a1)
    80203ae6:	f4c43c23          	sd	a2,-168(s0)
    80203aea:	06a61123          	sh	a0,98(a2)
    80203aee:	896e                	mv	s2,s11
    80203af0:	000db503          	ld	a0,0(s11)
    80203af4:	1a050a63          	beqz	a0,80203ca8 <_ZN5alloc11collections5btree4node210Handle$LT$alloc..collections..btree..node..NodeRef$LT$alloc..collections..btree..node..marker..Mut$C$K$C$V$C$alloc..collections..btree..node..marker..Leaf$GT$$C$alloc..collections..btree..node..marker..Edge$GT$16insert_recursing17hc219eb9ce8a318b9E+0x2fa>
    80203af8:	4601                	li	a2,0
    80203afa:	8c6a                	mv	s8,s10
    80203afc:	85ca                	mv	a1,s2
    80203afe:	8dd2                	mv	s11,s4
    80203b00:	8aa6                	mv	s5,s1
    80203b02:	a831                	j	80203b1e <_ZN5alloc11collections5btree4node210Handle$LT$alloc..collections..btree..node..NodeRef$LT$alloc..collections..btree..node..marker..Mut$C$K$C$V$C$alloc..collections..btree..node..marker..Leaf$GT$$C$alloc..collections..btree..node..marker..Edge$GT$16insert_recursing17hc219eb9ce8a318b9E+0x170>
    80203b04:	00093503          	ld	a0,0(s2)
    80203b08:	85ca                	mv	a1,s2
    80203b0a:	f6843c03          	ld	s8,-152(s0)
    80203b0e:	8662                	mv	a2,s8
    80203b10:	8dd2                	mv	s11,s4
    80203b12:	f7043483          	ld	s1,-144(s0)
    80203b16:	8aa6                	mv	s5,s1
    80203b18:	8d62                	mv	s10,s8
    80203b1a:	18050863          	beqz	a0,80203caa <_ZN5alloc11collections5btree4node210Handle$LT$alloc..collections..btree..node..NodeRef$LT$alloc..collections..btree..node..marker..Mut$C$K$C$V$C$alloc..collections..btree..node..marker..Leaf$GT$$C$alloc..collections..btree..node..marker..Edge$GT$16insert_recursing17hc219eb9ce8a318b9E+0x2fc>
    80203b1e:	28cc1263          	bne	s8,a2,80203da2 <.LBB51_51>
    80203b22:	8d2a                	mv	s10,a0
    80203b24:	06255a03          	lhu	s4,98(a0)
    80203b28:	0605d483          	lhu	s1,96(a1)
    80203b2c:	452d                	li	a0,11
    80203b2e:	18aa6a63          	bltu	s4,a0,80203cc2 <_ZN5alloc11collections5btree4node210Handle$LT$alloc..collections..btree..node..NodeRef$LT$alloc..collections..btree..node..marker..Mut$C$K$C$V$C$alloc..collections..btree..node..marker..Leaf$GT$$C$alloc..collections..btree..node..marker..Edge$GT$16insert_recursing17hc219eb9ce8a318b9E+0x314>
    80203b32:	f7b43c23          	sd	s11,-136(s0)
    80203b36:	f8040513          	addi	a0,s0,-128
    80203b3a:	85a6                	mv	a1,s1
    80203b3c:	00018097          	auipc	ra,0x18
    80203b40:	2d2080e7          	jalr	722(ra) # 8021be0e <_ZN5alloc11collections5btree4node10splitpoint17hbfc66533d6122a33E>
    80203b44:	f8043b83          	ld	s7,-128(s0)
    80203b48:	f8843d83          	ld	s11,-120(s0)
    80203b4c:	f9043b03          	ld	s6,-112(s0)
    80203b50:	062d5c83          	lhu	s9,98(s10)
    80203b54:	0c800513          	li	a0,200
    80203b58:	45a1                	li	a1,8
    80203b5a:	00012097          	auipc	ra,0x12
    80203b5e:	b7a080e7          	jalr	-1158(ra) # 802156d4 <__rust_alloc>
    80203b62:	24050f63          	beqz	a0,80203dc0 <.LBB51_52+0x16>
    80203b66:	8a2a                	mv	s4,a0
    80203b68:	00053023          	sd	zero,0(a0)
    80203b6c:	062d5603          	lhu	a2,98(s10)
    80203b70:	fffbc513          	not	a0,s7
    80203b74:	9532                	add	a0,a0,a2
    80203b76:	06aa1123          	sh	a0,98(s4)
    80203b7a:	45b1                	li	a1,12
    80203b7c:	20b57963          	bgeu	a0,a1,80203d8e <.LBB51_50>
    80203b80:	001b8593          	addi	a1,s7,1
    80203b84:	8e0d                	sub	a2,a2,a1
    80203b86:	1ea61563          	bne	a2,a0,80203d70 <.LBB51_48>
    80203b8a:	008d0613          	addi	a2,s10,8
    80203b8e:	003b9693          	slli	a3,s7,0x3
    80203b92:	96b2                	add	a3,a3,a2
    80203b94:	0006b983          	ld	s3,0(a3)
    80203b98:	008a0693          	addi	a3,s4,8
    80203b9c:	00359493          	slli	s1,a1,0x3
    80203ba0:	009605b3          	add	a1,a2,s1
    80203ba4:	00351613          	slli	a2,a0,0x3
    80203ba8:	8536                	mv	a0,a3
    80203baa:	0001c097          	auipc	ra,0x1c
    80203bae:	820080e7          	jalr	-2016(ra) # 8021f3ca <memcpy>
    80203bb2:	896a                	mv	s2,s10
    80203bb4:	077d1123          	sh	s7,98(s10)
    80203bb8:	062a5d03          	lhu	s10,98(s4)
    80203bbc:	001d0513          	addi	a0,s10,1
    80203bc0:	45b1                	li	a1,12
    80203bc2:	20bd7763          	bgeu	s10,a1,80203dd0 <.LBB51_53>
    80203bc6:	417c8633          	sub	a2,s9,s7
    80203bca:	1aa61363          	bne	a2,a0,80203d70 <.LBB51_48>
    80203bce:	0c05                	addi	s8,s8,1
    80203bd0:	00990533          	add	a0,s2,s1
    80203bd4:	06850593          	addi	a1,a0,104
    80203bd8:	068a0493          	addi	s1,s4,104
    80203bdc:	060e                	slli	a2,a2,0x3
    80203bde:	8526                	mv	a0,s1
    80203be0:	0001b097          	auipc	ra,0x1b
    80203be4:	7ea080e7          	jalr	2026(ra) # 8021f3ca <memcpy>
    80203be8:	4501                	li	a0,0
    80203bea:	00351593          	slli	a1,a0,0x3
    80203bee:	95a6                	add	a1,a1,s1
    80203bf0:	618c                	ld	a1,0(a1)
    80203bf2:	01a53633          	sltu	a2,a0,s10
    80203bf6:	00164693          	xori	a3,a2,1
    80203bfa:	06a59023          	sh	a0,96(a1)
    80203bfe:	9532                	add	a0,a0,a2
    80203c00:	00ad3633          	sltu	a2,s10,a0
    80203c04:	8e55                	or	a2,a2,a3
    80203c06:	0145b023          	sd	s4,0(a1)
    80203c0a:	d265                	beqz	a2,80203bea <_ZN5alloc11collections5btree4node210Handle$LT$alloc..collections..btree..node..NodeRef$LT$alloc..collections..btree..node..marker..Mut$C$K$C$V$C$alloc..collections..btree..node..marker..Leaf$GT$$C$alloc..collections..btree..node..marker..Edge$GT$16insert_recursing17hc219eb9ce8a318b9E+0x23c>
    80203c0c:	f7843423          	sd	s8,-152(s0)
    80203c10:	f7343823          	sd	s3,-144(s0)
    80203c14:	84ca                	mv	s1,s2
    80203c16:	000d8363          	beqz	s11,80203c1c <_ZN5alloc11collections5btree4node210Handle$LT$alloc..collections..btree..node..NodeRef$LT$alloc..collections..btree..node..marker..Mut$C$K$C$V$C$alloc..collections..btree..node..marker..Leaf$GT$$C$alloc..collections..btree..node..marker..Edge$GT$16insert_recursing17hc219eb9ce8a318b9E+0x26e>
    80203c1a:	84d2                	mv	s1,s4
    80203c1c:	0624dd03          	lhu	s10,98(s1)
    80203c20:	00848d93          	addi	s11,s1,8
    80203c24:	001b0c93          	addi	s9,s6,1
    80203c28:	003b1c13          	slli	s8,s6,0x3
    80203c2c:	003c9b93          	slli	s7,s9,0x3
    80203c30:	416d0633          	sub	a2,s10,s6
    80203c34:	019d6d63          	bltu	s10,s9,80203c4e <_ZN5alloc11collections5btree4node210Handle$LT$alloc..collections..btree..node..NodeRef$LT$alloc..collections..btree..node..marker..Mut$C$K$C$V$C$alloc..collections..btree..node..marker..Leaf$GT$$C$alloc..collections..btree..node..marker..Edge$GT$16insert_recursing17hc219eb9ce8a318b9E+0x2a0>
    80203c38:	018d85b3          	add	a1,s11,s8
    80203c3c:	017d8533          	add	a0,s11,s7
    80203c40:	89b2                	mv	s3,a2
    80203c42:	060e                	slli	a2,a2,0x3
    80203c44:	0001b097          	auipc	ra,0x1b
    80203c48:	4bc080e7          	jalr	1212(ra) # 8021f100 <memmove>
    80203c4c:	864e                	mv	a2,s3
    80203c4e:	018d8533          	add	a0,s11,s8
    80203c52:	01553023          	sd	s5,0(a0)
    80203c56:	002d0d93          	addi	s11,s10,2
    80203c5a:	002b0513          	addi	a0,s6,2
    80203c5e:	06848993          	addi	s3,s1,104
    80203c62:	01b57b63          	bgeu	a0,s11,80203c78 <_ZN5alloc11collections5btree4node210Handle$LT$alloc..collections..btree..node..NodeRef$LT$alloc..collections..btree..node..marker..Mut$C$K$C$V$C$alloc..collections..btree..node..marker..Leaf$GT$$C$alloc..collections..btree..node..marker..Edge$GT$16insert_recursing17hc219eb9ce8a318b9E+0x2ca>
    80203c66:	017985b3          	add	a1,s3,s7
    80203c6a:	050e                	slli	a0,a0,0x3
    80203c6c:	954e                	add	a0,a0,s3
    80203c6e:	060e                	slli	a2,a2,0x3
    80203c70:	0001b097          	auipc	ra,0x1b
    80203c74:	490080e7          	jalr	1168(ra) # 8021f100 <memmove>
    80203c78:	001d0513          	addi	a0,s10,1
    80203c7c:	017985b3          	add	a1,s3,s7
    80203c80:	f7843603          	ld	a2,-136(s0)
    80203c84:	e190                	sd	a2,0(a1)
    80203c86:	06a49123          	sh	a0,98(s1)
    80203c8a:	e7bcfde3          	bgeu	s9,s11,80203b04 <_ZN5alloc11collections5btree4node210Handle$LT$alloc..collections..btree..node..NodeRef$LT$alloc..collections..btree..node..marker..Mut$C$K$C$V$C$alloc..collections..btree..node..marker..Leaf$GT$$C$alloc..collections..btree..node..marker..Edge$GT$16insert_recursing17hc219eb9ce8a318b9E+0x156>
    80203c8e:	018485b3          	add	a1,s1,s8
    80203c92:	07058593          	addi	a1,a1,112
    80203c96:	6190                	ld	a2,0(a1)
    80203c98:	0b05                	addi	s6,s6,1
    80203c9a:	e204                	sd	s1,0(a2)
    80203c9c:	07661023          	sh	s6,96(a2)
    80203ca0:	05a1                	addi	a1,a1,8
    80203ca2:	ff651ae3          	bne	a0,s6,80203c96 <_ZN5alloc11collections5btree4node210Handle$LT$alloc..collections..btree..node..NodeRef$LT$alloc..collections..btree..node..marker..Mut$C$K$C$V$C$alloc..collections..btree..node..marker..Leaf$GT$$C$alloc..collections..btree..node..marker..Edge$GT$16insert_recursing17hc219eb9ce8a318b9E+0x2e8>
    80203ca6:	bdb9                	j	80203b04 <_ZN5alloc11collections5btree4node210Handle$LT$alloc..collections..btree..node..NodeRef$LT$alloc..collections..btree..node..marker..Mut$C$K$C$V$C$alloc..collections..btree..node..marker..Leaf$GT$$C$alloc..collections..btree..node..marker..Edge$GT$16insert_recursing17hc219eb9ce8a318b9E+0x156>
    80203ca8:	4c01                	li	s8,0
    80203caa:	f6043603          	ld	a2,-160(s0)
    80203cae:	01a63023          	sd	s10,0(a2)
    80203cb2:	01263423          	sd	s2,8(a2)
    80203cb6:	01863823          	sd	s8,16(a2)
    80203cba:	01463c23          	sd	s4,24(a2)
    80203cbe:	f204                	sd	s1,32(a2)
    80203cc0:	a069                	j	80203d4a <_ZN5alloc11collections5btree4node210Handle$LT$alloc..collections..btree..node..NodeRef$LT$alloc..collections..btree..node..marker..Mut$C$K$C$V$C$alloc..collections..btree..node..marker..Leaf$GT$$C$alloc..collections..btree..node..marker..Edge$GT$16insert_recursing17hc219eb9ce8a318b9E+0x39c>
    80203cc2:	001a0913          	addi	s2,s4,1
    80203cc6:	008d0c93          	addi	s9,s10,8
    80203cca:	00148b93          	addi	s7,s1,1
    80203cce:	00349b13          	slli	s6,s1,0x3
    80203cd2:	8c6a                	mv	s8,s10
    80203cd4:	003b9d13          	slli	s10,s7,0x3
    80203cd8:	0344fa63          	bgeu	s1,s4,80203d0c <_ZN5alloc11collections5btree4node210Handle$LT$alloc..collections..btree..node..NodeRef$LT$alloc..collections..btree..node..marker..Mut$C$K$C$V$C$alloc..collections..btree..node..marker..Leaf$GT$$C$alloc..collections..btree..node..marker..Edge$GT$16insert_recursing17hc219eb9ce8a318b9E+0x35e>
    80203cdc:	016c85b3          	add	a1,s9,s6
    80203ce0:	01ac8533          	add	a0,s9,s10
    80203ce4:	409a0633          	sub	a2,s4,s1
    80203ce8:	00361993          	slli	s3,a2,0x3
    80203cec:	864e                	mv	a2,s3
    80203cee:	0001b097          	auipc	ra,0x1b
    80203cf2:	412080e7          	jalr	1042(ra) # 8021f100 <memmove>
    80203cf6:	068c0513          	addi	a0,s8,104
    80203cfa:	01a505b3          	add	a1,a0,s10
    80203cfe:	955a                	add	a0,a0,s6
    80203d00:	0541                	addi	a0,a0,16
    80203d02:	864e                	mv	a2,s3
    80203d04:	0001b097          	auipc	ra,0x1b
    80203d08:	3fc080e7          	jalr	1020(ra) # 8021f100 <memmove>
    80203d0c:	016c8533          	add	a0,s9,s6
    80203d10:	01553023          	sd	s5,0(a0)
    80203d14:	01ac0533          	add	a0,s8,s10
    80203d18:	002a0593          	addi	a1,s4,2
    80203d1c:	07b53423          	sd	s11,104(a0)
    80203d20:	072c1123          	sh	s2,98(s8)
    80203d24:	00bbff63          	bgeu	s7,a1,80203d42 <_ZN5alloc11collections5btree4node210Handle$LT$alloc..collections..btree..node..NodeRef$LT$alloc..collections..btree..node..marker..Mut$C$K$C$V$C$alloc..collections..btree..node..marker..Leaf$GT$$C$alloc..collections..btree..node..marker..Edge$GT$16insert_recursing17hc219eb9ce8a318b9E+0x394>
    80203d28:	016c0533          	add	a0,s8,s6
    80203d2c:	07050513          	addi	a0,a0,112
    80203d30:	610c                	ld	a1,0(a0)
    80203d32:	0485                	addi	s1,s1,1
    80203d34:	0185b023          	sd	s8,0(a1)
    80203d38:	06959023          	sh	s1,96(a1)
    80203d3c:	0521                	addi	a0,a0,8
    80203d3e:	fe9919e3          	bne	s2,s1,80203d30 <_ZN5alloc11collections5btree4node210Handle$LT$alloc..collections..btree..node..NodeRef$LT$alloc..collections..btree..node..marker..Mut$C$K$C$V$C$alloc..collections..btree..node..marker..Leaf$GT$$C$alloc..collections..btree..node..marker..Edge$GT$16insert_recursing17hc219eb9ce8a318b9E+0x382>
    80203d42:	f6043603          	ld	a2,-160(s0)
    80203d46:	00063423          	sd	zero,8(a2)
    80203d4a:	f5843d83          	ld	s11,-168(s0)
    80203d4e:	03b63423          	sd	s11,40(a2)
    80203d52:	70aa                	ld	ra,168(sp)
    80203d54:	740a                	ld	s0,160(sp)
    80203d56:	64ea                	ld	s1,152(sp)
    80203d58:	694a                	ld	s2,144(sp)
    80203d5a:	69aa                	ld	s3,136(sp)
    80203d5c:	6a0a                	ld	s4,128(sp)
    80203d5e:	7ae6                	ld	s5,120(sp)
    80203d60:	7b46                	ld	s6,112(sp)
    80203d62:	7ba6                	ld	s7,104(sp)
    80203d64:	7c06                	ld	s8,96(sp)
    80203d66:	6ce6                	ld	s9,88(sp)
    80203d68:	6d46                	ld	s10,80(sp)
    80203d6a:	6da6                	ld	s11,72(sp)
    80203d6c:	614d                	addi	sp,sp,176
    80203d6e:	8082                	ret

0000000080203d70 <.LBB51_48>:
    80203d70:	0001c517          	auipc	a0,0x1c
    80203d74:	4b050513          	addi	a0,a0,1200 # 80220220 <.Lanon.d6099a4703f55f35884a06451ebc7765.14>

0000000080203d78 <.LBB51_49>:
    80203d78:	0001c617          	auipc	a2,0x1c
    80203d7c:	4d060613          	addi	a2,a2,1232 # 80220248 <.Lanon.d6099a4703f55f35884a06451ebc7765.15>
    80203d80:	02800593          	li	a1,40
    80203d84:	00018097          	auipc	ra,0x18
    80203d88:	40a080e7          	jalr	1034(ra) # 8021c18e <_ZN4core9panicking5panic17h183aba44d01f42adE>
	...

0000000080203d8e <.LBB51_50>:
    80203d8e:	0001c617          	auipc	a2,0x1c
    80203d92:	4d260613          	addi	a2,a2,1234 # 80220260 <.Lanon.d6099a4703f55f35884a06451ebc7765.16>
    80203d96:	45ad                	li	a1,11
    80203d98:	0001a097          	auipc	ra,0x1a
    80203d9c:	cf0080e7          	jalr	-784(ra) # 8021da88 <_ZN4core5slice5index24slice_end_index_len_fail17he5846e131809ee70E>
	...

0000000080203da2 <.LBB51_51>:
    80203da2:	0001c517          	auipc	a0,0x1c
    80203da6:	4ee50513          	addi	a0,a0,1262 # 80220290 <.Lanon.d6099a4703f55f35884a06451ebc7765.18>

0000000080203daa <.LBB51_52>:
    80203daa:	0001c617          	auipc	a2,0x1c
    80203dae:	51e60613          	addi	a2,a2,1310 # 802202c8 <.Lanon.d6099a4703f55f35884a06451ebc7765.19>
    80203db2:	03500593          	li	a1,53
    80203db6:	00018097          	auipc	ra,0x18
    80203dba:	3d8080e7          	jalr	984(ra) # 8021c18e <_ZN4core9panicking5panic17h183aba44d01f42adE>
    80203dbe:	0000                	unimp
    80203dc0:	0c800513          	li	a0,200
    80203dc4:	45a1                	li	a1,8
    80203dc6:	00018097          	auipc	ra,0x18
    80203dca:	02c080e7          	jalr	44(ra) # 8021bdf2 <_ZN5alloc5alloc18handle_alloc_error17h3b12d3b52c903b1cE>
	...

0000000080203dd0 <.LBB51_53>:
    80203dd0:	0001c617          	auipc	a2,0x1c
    80203dd4:	4a860613          	addi	a2,a2,1192 # 80220278 <.Lanon.d6099a4703f55f35884a06451ebc7765.17>
    80203dd8:	45b1                	li	a1,12
    80203dda:	0001a097          	auipc	ra,0x1a
    80203dde:	cae080e7          	jalr	-850(ra) # 8021da88 <_ZN4core5slice5index24slice_end_index_len_fail17he5846e131809ee70E>
    80203de2:	0000                	unimp
    80203de4:	06800513          	li	a0,104
    80203de8:	45a1                	li	a1,8
    80203dea:	00018097          	auipc	ra,0x18
    80203dee:	008080e7          	jalr	8(ra) # 8021bdf2 <_ZN5alloc5alloc18handle_alloc_error17h3b12d3b52c903b1cE>
	...

0000000080203df4 <_ZN5alloc11collections5btree4node210Handle$LT$alloc..collections..btree..node..NodeRef$LT$alloc..collections..btree..node..marker..Mut$C$K$C$V$C$alloc..collections..btree..node..marker..Leaf$GT$$C$alloc..collections..btree..node..marker..Edge$GT$16insert_recursing17hef667d4ca15e7b51E>:
    80203df4:	7125                	addi	sp,sp,-416
    80203df6:	ef06                	sd	ra,408(sp)
    80203df8:	eb22                	sd	s0,400(sp)
    80203dfa:	e726                	sd	s1,392(sp)
    80203dfc:	e34a                	sd	s2,384(sp)
    80203dfe:	fece                	sd	s3,376(sp)
    80203e00:	fad2                	sd	s4,368(sp)
    80203e02:	f6d6                	sd	s5,360(sp)
    80203e04:	f2da                	sd	s6,352(sp)
    80203e06:	eede                	sd	s7,344(sp)
    80203e08:	eae2                	sd	s8,336(sp)
    80203e0a:	e6e6                	sd	s9,328(sp)
    80203e0c:	e2ea                	sd	s10,320(sp)
    80203e0e:	fe6e                	sd	s11,312(sp)
    80203e10:	1300                	addi	s0,sp,416
    80203e12:	872e                	mv	a4,a1
    80203e14:	0085bd03          	ld	s10,8(a1)
    80203e18:	322d5483          	lhu	s1,802(s10)
    80203e1c:	698c                	ld	a1,16(a1)
    80203e1e:	47ad                	li	a5,11
    80203e20:	89b6                	mv	s3,a3
    80203e22:	8a32                	mv	s4,a2
    80203e24:	86aa                	mv	a3,a0
    80203e26:	02f4f163          	bgeu	s1,a5,80203e48 <_ZN5alloc11collections5btree4node210Handle$LT$alloc..collections..btree..node..NodeRef$LT$alloc..collections..btree..node..marker..Mut$C$K$C$V$C$alloc..collections..btree..node..marker..Leaf$GT$$C$alloc..collections..btree..node..marker..Edge$GT$16insert_recursing17hef667d4ca15e7b51E+0x54>
    80203e2a:	2c8d0513          	addi	a0,s10,712
    80203e2e:	00158b13          	addi	s6,a1,1
    80203e32:	00359613          	slli	a2,a1,0x3
    80203e36:	00c50933          	add	s2,a0,a2
    80203e3a:	00659a93          	slli	s5,a1,0x6
    80203e3e:	1564f163          	bgeu	s1,s6,80203f80 <_ZN5alloc11collections5btree4node210Handle$LT$alloc..collections..btree..node..NodeRef$LT$alloc..collections..btree..node..marker..Mut$C$K$C$V$C$alloc..collections..btree..node..marker..Leaf$GT$$C$alloc..collections..btree..node..marker..Edge$GT$16insert_recursing17hef667d4ca15e7b51E+0x18c>
    80203e42:	01493023          	sd	s4,0(s2)
    80203e46:	aa85                	j	80203fb6 <_ZN5alloc11collections5btree4node210Handle$LT$alloc..collections..btree..node..NodeRef$LT$alloc..collections..btree..node..marker..Mut$C$K$C$V$C$alloc..collections..btree..node..marker..Leaf$GT$$C$alloc..collections..btree..node..marker..Edge$GT$16insert_recursing17hef667d4ca15e7b51E+0x1c2>
    80203e48:	e6d43823          	sd	a3,-400(s0)
    80203e4c:	6304                	ld	s1,0(a4)
    80203e4e:	f5840513          	addi	a0,s0,-168
    80203e52:	00018097          	auipc	ra,0x18
    80203e56:	fbc080e7          	jalr	-68(ra) # 8021be0e <_ZN5alloc11collections5btree4node10splitpoint17hbfc66533d6122a33E>
    80203e5a:	f5843c03          	ld	s8,-168(s0)
    80203e5e:	f6043903          	ld	s2,-160(s0)
    80203e62:	f6843b83          	ld	s7,-152(s0)
    80203e66:	32800513          	li	a0,808
    80203e6a:	45a1                	li	a1,8
    80203e6c:	00012097          	auipc	ra,0x12
    80203e70:	868080e7          	jalr	-1944(ra) # 802156d4 <__rust_alloc>
    80203e74:	7e050f63          	beqz	a0,80204672 <.LBB52_57+0x14>
    80203e78:	8b2a                	mv	s6,a0
    80203e7a:	2c053023          	sd	zero,704(a0)
    80203e7e:	322d5503          	lhu	a0,802(s10)
    80203e82:	fffc4593          	not	a1,s8
    80203e86:	00b50ab3          	add	s5,a0,a1
    80203e8a:	335b1123          	sh	s5,802(s6)
    80203e8e:	2c8d0593          	addi	a1,s10,712
    80203e92:	006c1613          	slli	a2,s8,0x6
    80203e96:	966a                	add	a2,a2,s10
    80203e98:	7e14                	ld	a3,56(a2)
    80203e9a:	003c1713          	slli	a4,s8,0x3
    80203e9e:	972e                	add	a4,a4,a1
    80203ea0:	6318                	ld	a4,0(a4)
    80203ea2:	e8e43823          	sd	a4,-368(s0)
    80203ea6:	f8d43823          	sd	a3,-112(s0)
    80203eaa:	7a14                	ld	a3,48(a2)
    80203eac:	f8d43423          	sd	a3,-120(s0)
    80203eb0:	7614                	ld	a3,40(a2)
    80203eb2:	f8d43023          	sd	a3,-128(s0)
    80203eb6:	7214                	ld	a3,32(a2)
    80203eb8:	f6d43c23          	sd	a3,-136(s0)
    80203ebc:	6e14                	ld	a3,24(a2)
    80203ebe:	f6d43823          	sd	a3,-144(s0)
    80203ec2:	6a14                	ld	a3,16(a2)
    80203ec4:	f6d43423          	sd	a3,-152(s0)
    80203ec8:	6614                	ld	a3,8(a2)
    80203eca:	f6d43023          	sd	a3,-160(s0)
    80203ece:	6210                	ld	a2,0(a2)
    80203ed0:	46b1                	li	a3,12
    80203ed2:	f4c43c23          	sd	a2,-168(s0)
    80203ed6:	7adaf663          	bgeu	s5,a3,80204682 <.LBB52_58>
    80203eda:	001c0c93          	addi	s9,s8,1
    80203ede:	41950533          	sub	a0,a0,s9
    80203ee2:	71551d63          	bne	a0,s5,802045fc <.LBB52_52>
    80203ee6:	2c8b0513          	addi	a0,s6,712
    80203eea:	003c9613          	slli	a2,s9,0x3
    80203eee:	95b2                	add	a1,a1,a2
    80203ef0:	003a9613          	slli	a2,s5,0x3
    80203ef4:	0001b097          	auipc	ra,0x1b
    80203ef8:	4d6080e7          	jalr	1238(ra) # 8021f3ca <memcpy>
    80203efc:	006c9513          	slli	a0,s9,0x6
    80203f00:	00ad05b3          	add	a1,s10,a0
    80203f04:	006a9613          	slli	a2,s5,0x6
    80203f08:	855a                	mv	a0,s6
    80203f0a:	0001b097          	auipc	ra,0x1b
    80203f0e:	4c0080e7          	jalr	1216(ra) # 8021f3ca <memcpy>
    80203f12:	338d1123          	sh	s8,802(s10)
    80203f16:	f5843503          	ld	a0,-168(s0)
    80203f1a:	f6043583          	ld	a1,-160(s0)
    80203f1e:	f6843603          	ld	a2,-152(s0)
    80203f22:	f7043683          	ld	a3,-144(s0)
    80203f26:	f0a43c23          	sd	a0,-232(s0)
    80203f2a:	f2b43023          	sd	a1,-224(s0)
    80203f2e:	f2c43423          	sd	a2,-216(s0)
    80203f32:	f2d43823          	sd	a3,-208(s0)
    80203f36:	f7843503          	ld	a0,-136(s0)
    80203f3a:	f8043583          	ld	a1,-128(s0)
    80203f3e:	f8843603          	ld	a2,-120(s0)
    80203f42:	f9043683          	ld	a3,-112(s0)
    80203f46:	f2a43c23          	sd	a0,-200(s0)
    80203f4a:	f4b43023          	sd	a1,-192(s0)
    80203f4e:	f4c43423          	sd	a2,-184(s0)
    80203f52:	f4d43823          	sd	a3,-176(s0)
    80203f56:	8c6a                	mv	s8,s10
    80203f58:	00090363          	beqz	s2,80203f5e <_ZN5alloc11collections5btree4node210Handle$LT$alloc..collections..btree..node..NodeRef$LT$alloc..collections..btree..node..marker..Mut$C$K$C$V$C$alloc..collections..btree..node..marker..Leaf$GT$$C$alloc..collections..btree..node..marker..Edge$GT$16insert_recursing17hef667d4ca15e7b51E+0x16a>
    80203f5c:	8c5a                	mv	s8,s6
    80203f5e:	322c5903          	lhu	s2,802(s8)
    80203f62:	2c8c0513          	addi	a0,s8,712
    80203f66:	001b8d93          	addi	s11,s7,1
    80203f6a:	003b9593          	slli	a1,s7,0x3
    80203f6e:	00b50ab3          	add	s5,a0,a1
    80203f72:	006b9c93          	slli	s9,s7,0x6
    80203f76:	09b97263          	bgeu	s2,s11,80203ffa <_ZN5alloc11collections5btree4node210Handle$LT$alloc..collections..btree..node..NodeRef$LT$alloc..collections..btree..node..marker..Mut$C$K$C$V$C$alloc..collections..btree..node..marker..Leaf$GT$$C$alloc..collections..btree..node..marker..Edge$GT$16insert_recursing17hef667d4ca15e7b51E+0x206>
    80203f7a:	014ab023          	sd	s4,0(s5)
    80203f7e:	a07d                	j	8020402c <_ZN5alloc11collections5btree4node210Handle$LT$alloc..collections..btree..node..NodeRef$LT$alloc..collections..btree..node..marker..Mut$C$K$C$V$C$alloc..collections..btree..node..marker..Leaf$GT$$C$alloc..collections..btree..node..marker..Edge$GT$16insert_recursing17hef667d4ca15e7b51E+0x238>
    80203f80:	003b1613          	slli	a2,s6,0x3
    80203f84:	9532                	add	a0,a0,a2
    80203f86:	40b48bb3          	sub	s7,s1,a1
    80203f8a:	003b9613          	slli	a2,s7,0x3
    80203f8e:	85ca                	mv	a1,s2
    80203f90:	8c36                	mv	s8,a3
    80203f92:	0001b097          	auipc	ra,0x1b
    80203f96:	16e080e7          	jalr	366(ra) # 8021f100 <memmove>
    80203f9a:	01493023          	sd	s4,0(s2)
    80203f9e:	015d05b3          	add	a1,s10,s5
    80203fa2:	006b1513          	slli	a0,s6,0x6
    80203fa6:	956a                	add	a0,a0,s10
    80203fa8:	006b9613          	slli	a2,s7,0x6
    80203fac:	0001b097          	auipc	ra,0x1b
    80203fb0:	154080e7          	jalr	340(ra) # 8021f100 <memmove>
    80203fb4:	86e2                	mv	a3,s8
    80203fb6:	0389b503          	ld	a0,56(s3)
    80203fba:	015d05b3          	add	a1,s10,s5
    80203fbe:	fd88                	sd	a0,56(a1)
    80203fc0:	0309b503          	ld	a0,48(s3)
    80203fc4:	f988                	sd	a0,48(a1)
    80203fc6:	0289b503          	ld	a0,40(s3)
    80203fca:	f588                	sd	a0,40(a1)
    80203fcc:	0209b503          	ld	a0,32(s3)
    80203fd0:	f188                	sd	a0,32(a1)
    80203fd2:	0189b503          	ld	a0,24(s3)
    80203fd6:	ed88                	sd	a0,24(a1)
    80203fd8:	0109b503          	ld	a0,16(s3)
    80203fdc:	e988                	sd	a0,16(a1)
    80203fde:	0089b503          	ld	a0,8(s3)
    80203fe2:	e588                	sd	a0,8(a1)
    80203fe4:	0009b503          	ld	a0,0(s3)
    80203fe8:	0014861b          	addiw	a2,s1,1
    80203fec:	e188                	sd	a0,0(a1)
    80203fee:	32cd1123          	sh	a2,802(s10)
    80203ff2:	0006b423          	sd	zero,8(a3)
    80203ff6:	f6ac                	sd	a1,104(a3)
    80203ff8:	a3dd                	j	802045de <_ZN5alloc11collections5btree4node210Handle$LT$alloc..collections..btree..node..NodeRef$LT$alloc..collections..btree..node..marker..Mut$C$K$C$V$C$alloc..collections..btree..node..marker..Leaf$GT$$C$alloc..collections..btree..node..marker..Edge$GT$16insert_recursing17hef667d4ca15e7b51E+0x7ea>
    80203ffa:	003d9593          	slli	a1,s11,0x3
    80203ffe:	952e                	add	a0,a0,a1
    80204000:	41790bb3          	sub	s7,s2,s7
    80204004:	003b9613          	slli	a2,s7,0x3
    80204008:	85d6                	mv	a1,s5
    8020400a:	0001b097          	auipc	ra,0x1b
    8020400e:	0f6080e7          	jalr	246(ra) # 8021f100 <memmove>
    80204012:	014ab023          	sd	s4,0(s5)
    80204016:	019c05b3          	add	a1,s8,s9
    8020401a:	006d9513          	slli	a0,s11,0x6
    8020401e:	9562                	add	a0,a0,s8
    80204020:	006b9613          	slli	a2,s7,0x6
    80204024:	0001b097          	auipc	ra,0x1b
    80204028:	0dc080e7          	jalr	220(ra) # 8021f100 <memmove>
    8020402c:	0389b503          	ld	a0,56(s3)
    80204030:	019c0633          	add	a2,s8,s9
    80204034:	fe08                	sd	a0,56(a2)
    80204036:	0309b503          	ld	a0,48(s3)
    8020403a:	fa08                	sd	a0,48(a2)
    8020403c:	0289b503          	ld	a0,40(s3)
    80204040:	f608                	sd	a0,40(a2)
    80204042:	0209b503          	ld	a0,32(s3)
    80204046:	f208                	sd	a0,32(a2)
    80204048:	0189b503          	ld	a0,24(s3)
    8020404c:	ee08                	sd	a0,24(a2)
    8020404e:	0109b503          	ld	a0,16(s3)
    80204052:	ea08                	sd	a0,16(a2)
    80204054:	0089b503          	ld	a0,8(s3)
    80204058:	e608                	sd	a0,8(a2)
    8020405a:	0009b503          	ld	a0,0(s3)
    8020405e:	0019059b          	addiw	a1,s2,1
    80204062:	e6c43423          	sd	a2,-408(s0)
    80204066:	e208                	sd	a0,0(a2)
    80204068:	32bc1123          	sh	a1,802(s8)
    8020406c:	f5043803          	ld	a6,-176(s0)
    80204070:	f4843883          	ld	a7,-184(s0)
    80204074:	f4043603          	ld	a2,-192(s0)
    80204078:	f3843683          	ld	a3,-200(s0)
    8020407c:	f1043823          	sd	a6,-240(s0)
    80204080:	f1143423          	sd	a7,-248(s0)
    80204084:	f0c43023          	sd	a2,-256(s0)
    80204088:	eed43c23          	sd	a3,-264(s0)
    8020408c:	f3043703          	ld	a4,-208(s0)
    80204090:	f2843783          	ld	a5,-216(s0)
    80204094:	f2043503          	ld	a0,-224(s0)
    80204098:	f1843583          	ld	a1,-232(s0)
    8020409c:	eee43823          	sd	a4,-272(s0)
    802040a0:	eef43423          	sd	a5,-280(s0)
    802040a4:	eea43023          	sd	a0,-288(s0)
    802040a8:	ecb43c23          	sd	a1,-296(s0)
    802040ac:	ed043823          	sd	a6,-304(s0)
    802040b0:	ed143423          	sd	a7,-312(s0)
    802040b4:	ecc43023          	sd	a2,-320(s0)
    802040b8:	ead43c23          	sd	a3,-328(s0)
    802040bc:	eae43823          	sd	a4,-336(s0)
    802040c0:	eaf43423          	sd	a5,-344(s0)
    802040c4:	eaa43023          	sd	a0,-352(s0)
    802040c8:	e8b43c23          	sd	a1,-360(s0)
    802040cc:	2c0d3503          	ld	a0,704(s10)
    802040d0:	38050c63          	beqz	a0,80204468 <_ZN5alloc11collections5btree4node210Handle$LT$alloc..collections..btree..node..NodeRef$LT$alloc..collections..btree..node..marker..Mut$C$K$C$V$C$alloc..collections..btree..node..marker..Leaf$GT$$C$alloc..collections..btree..node..marker..Edge$GT$16insert_recursing17hef667d4ca15e7b51E+0x674>
    802040d4:	4601                	li	a2,0
    802040d6:	8ca6                	mv	s9,s1
    802040d8:	85ea                	mv	a1,s10
    802040da:	8dda                	mv	s11,s6
    802040dc:	e9043a03          	ld	s4,-368(s0)
    802040e0:	a8b1                	j	8020413c <_ZN5alloc11collections5btree4node210Handle$LT$alloc..collections..btree..node..NodeRef$LT$alloc..collections..btree..node..marker..Mut$C$K$C$V$C$alloc..collections..btree..node..marker..Leaf$GT$$C$alloc..collections..btree..node..marker..Edge$GT$16insert_recursing17hef667d4ca15e7b51E+0x348>
    802040e2:	f1043503          	ld	a0,-240(s0)
    802040e6:	f0843583          	ld	a1,-248(s0)
    802040ea:	f0043603          	ld	a2,-256(s0)
    802040ee:	ef843683          	ld	a3,-264(s0)
    802040f2:	eca43823          	sd	a0,-304(s0)
    802040f6:	ecb43423          	sd	a1,-312(s0)
    802040fa:	ecc43023          	sd	a2,-320(s0)
    802040fe:	ead43c23          	sd	a3,-328(s0)
    80204102:	ef043503          	ld	a0,-272(s0)
    80204106:	ee843583          	ld	a1,-280(s0)
    8020410a:	ee043603          	ld	a2,-288(s0)
    8020410e:	ed843683          	ld	a3,-296(s0)
    80204112:	eaa43823          	sd	a0,-336(s0)
    80204116:	eab43423          	sd	a1,-344(s0)
    8020411a:	eac43023          	sd	a2,-352(s0)
    8020411e:	e8d43c23          	sd	a3,-360(s0)
    80204122:	2c0d3503          	ld	a0,704(s10)
    80204126:	85ea                	mv	a1,s10
    80204128:	e7843c83          	ld	s9,-392(s0)
    8020412c:	8666                	mv	a2,s9
    8020412e:	8dda                	mv	s11,s6
    80204130:	e9043783          	ld	a5,-368(s0)
    80204134:	8a3e                	mv	s4,a5
    80204136:	84e6                	mv	s1,s9
    80204138:	32050b63          	beqz	a0,8020446e <_ZN5alloc11collections5btree4node210Handle$LT$alloc..collections..btree..node..NodeRef$LT$alloc..collections..btree..node..marker..Mut$C$K$C$V$C$alloc..collections..btree..node..marker..Leaf$GT$$C$alloc..collections..btree..node..marker..Edge$GT$16insert_recursing17hef667d4ca15e7b51E+0x67a>
    8020413c:	4ccc9f63          	bne	s9,a2,8020461a <.LBB52_54>
    80204140:	8d2a                	mv	s10,a0
    80204142:	32255a83          	lhu	s5,802(a0)
    80204146:	3205d483          	lhu	s1,800(a1)
    8020414a:	452d                	li	a0,11
    8020414c:	36aae763          	bltu	s5,a0,802044ba <_ZN5alloc11collections5btree4node210Handle$LT$alloc..collections..btree..node..NodeRef$LT$alloc..collections..btree..node..marker..Mut$C$K$C$V$C$alloc..collections..btree..node..marker..Leaf$GT$$C$alloc..collections..btree..node..marker..Edge$GT$16insert_recursing17hef667d4ca15e7b51E+0x6c6>
    80204150:	e9443023          	sd	s4,-384(s0)
    80204154:	e9b43423          	sd	s11,-376(s0)
    80204158:	f5840513          	addi	a0,s0,-168
    8020415c:	85a6                	mv	a1,s1
    8020415e:	00018097          	auipc	ra,0x18
    80204162:	cb0080e7          	jalr	-848(ra) # 8021be0e <_ZN5alloc11collections5btree4node10splitpoint17hbfc66533d6122a33E>
    80204166:	f5843903          	ld	s2,-168(s0)
    8020416a:	f6043a03          	ld	s4,-160(s0)
    8020416e:	f6843d83          	ld	s11,-152(s0)
    80204172:	322d5a83          	lhu	s5,802(s10)
    80204176:	38800513          	li	a0,904
    8020417a:	45a1                	li	a1,8
    8020417c:	00011097          	auipc	ra,0x11
    80204180:	558080e7          	jalr	1368(ra) # 802156d4 <__rust_alloc>
    80204184:	4a050a63          	beqz	a0,80204638 <.LBB52_55+0x16>
    80204188:	8b2a                	mv	s6,a0
    8020418a:	2c053023          	sd	zero,704(a0)
    8020418e:	322d5503          	lhu	a0,802(s10)
    80204192:	fff94593          	not	a1,s2
    80204196:	00b50bb3          	add	s7,a0,a1
    8020419a:	337b1123          	sh	s7,802(s6)
    8020419e:	2c8d0593          	addi	a1,s10,712
    802041a2:	00691613          	slli	a2,s2,0x6
    802041a6:	966a                	add	a2,a2,s10
    802041a8:	7e14                	ld	a3,56(a2)
    802041aa:	00391713          	slli	a4,s2,0x3
    802041ae:	972e                	add	a4,a4,a1
    802041b0:	00073c03          	ld	s8,0(a4)
    802041b4:	f8d43823          	sd	a3,-112(s0)
    802041b8:	7a14                	ld	a3,48(a2)
    802041ba:	f8d43423          	sd	a3,-120(s0)
    802041be:	7614                	ld	a3,40(a2)
    802041c0:	f8d43023          	sd	a3,-128(s0)
    802041c4:	7214                	ld	a3,32(a2)
    802041c6:	f6d43c23          	sd	a3,-136(s0)
    802041ca:	6e14                	ld	a3,24(a2)
    802041cc:	f6d43823          	sd	a3,-144(s0)
    802041d0:	6a14                	ld	a3,16(a2)
    802041d2:	f6d43423          	sd	a3,-152(s0)
    802041d6:	6614                	ld	a3,8(a2)
    802041d8:	f6d43023          	sd	a3,-160(s0)
    802041dc:	6210                	ld	a2,0(a2)
    802041de:	f4c43c23          	sd	a2,-168(s0)
    802041e2:	4631                	li	a2,12
    802041e4:	46cbf263          	bgeu	s7,a2,80204648 <.LBB52_56>
    802041e8:	00190493          	addi	s1,s2,1
    802041ec:	8d05                	sub	a0,a0,s1
    802041ee:	41751763          	bne	a0,s7,802045fc <.LBB52_52>
    802041f2:	2c8b0513          	addi	a0,s6,712
    802041f6:	00349993          	slli	s3,s1,0x3
    802041fa:	95ce                	add	a1,a1,s3
    802041fc:	003b9613          	slli	a2,s7,0x3
    80204200:	0001b097          	auipc	ra,0x1b
    80204204:	1ca080e7          	jalr	458(ra) # 8021f3ca <memcpy>
    80204208:	00649513          	slli	a0,s1,0x6
    8020420c:	00ad05b3          	add	a1,s10,a0
    80204210:	006b9613          	slli	a2,s7,0x6
    80204214:	855a                	mv	a0,s6
    80204216:	0001b097          	auipc	ra,0x1b
    8020421a:	1b4080e7          	jalr	436(ra) # 8021f3ca <memcpy>
    8020421e:	332d1123          	sh	s2,802(s10)
    80204222:	f5843503          	ld	a0,-168(s0)
    80204226:	f0a43c23          	sd	a0,-232(s0)
    8020422a:	f6043503          	ld	a0,-160(s0)
    8020422e:	f6843583          	ld	a1,-152(s0)
    80204232:	f7043603          	ld	a2,-144(s0)
    80204236:	f7843683          	ld	a3,-136(s0)
    8020423a:	f2a43023          	sd	a0,-224(s0)
    8020423e:	f2b43423          	sd	a1,-216(s0)
    80204242:	f2c43823          	sd	a2,-208(s0)
    80204246:	f2d43c23          	sd	a3,-200(s0)
    8020424a:	f8043503          	ld	a0,-128(s0)
    8020424e:	f8843583          	ld	a1,-120(s0)
    80204252:	f9043603          	ld	a2,-112(s0)
    80204256:	322b5483          	lhu	s1,802(s6)
    8020425a:	f4a43023          	sd	a0,-192(s0)
    8020425e:	f4b43423          	sd	a1,-184(s0)
    80204262:	f4c43823          	sd	a2,-176(s0)
    80204266:	00148513          	addi	a0,s1,1
    8020426a:	45b1                	li	a1,12
    8020426c:	3eb4f963          	bgeu	s1,a1,8020465e <.LBB52_57>
    80204270:	412a8633          	sub	a2,s5,s2
    80204274:	38a61463          	bne	a2,a0,802045fc <.LBB52_52>
    80204278:	0c85                	addi	s9,s9,1
    8020427a:	013d0533          	add	a0,s10,s3
    8020427e:	32850593          	addi	a1,a0,808
    80204282:	328b0913          	addi	s2,s6,808
    80204286:	060e                	slli	a2,a2,0x3
    80204288:	854a                	mv	a0,s2
    8020428a:	0001b097          	auipc	ra,0x1b
    8020428e:	140080e7          	jalr	320(ra) # 8021f3ca <memcpy>
    80204292:	4501                	li	a0,0
    80204294:	00351593          	slli	a1,a0,0x3
    80204298:	95ca                	add	a1,a1,s2
    8020429a:	618c                	ld	a1,0(a1)
    8020429c:	00953633          	sltu	a2,a0,s1
    802042a0:	00164693          	xori	a3,a2,1
    802042a4:	32a59023          	sh	a0,800(a1)
    802042a8:	9532                	add	a0,a0,a2
    802042aa:	00a4b633          	sltu	a2,s1,a0
    802042ae:	8e55                	or	a2,a2,a3
    802042b0:	2d65b023          	sd	s6,704(a1)
    802042b4:	d265                	beqz	a2,80204294 <_ZN5alloc11collections5btree4node210Handle$LT$alloc..collections..btree..node..NodeRef$LT$alloc..collections..btree..node..marker..Mut$C$K$C$V$C$alloc..collections..btree..node..marker..Leaf$GT$$C$alloc..collections..btree..node..marker..Edge$GT$16insert_recursing17hef667d4ca15e7b51E+0x4a0>
    802042b6:	e7943c23          	sd	s9,-392(s0)
    802042ba:	e9843823          	sd	s8,-368(s0)
    802042be:	f5043503          	ld	a0,-176(s0)
    802042c2:	f4843583          	ld	a1,-184(s0)
    802042c6:	f4043603          	ld	a2,-192(s0)
    802042ca:	f3843683          	ld	a3,-200(s0)
    802042ce:	f0a43823          	sd	a0,-240(s0)
    802042d2:	f0b43423          	sd	a1,-248(s0)
    802042d6:	f0c43023          	sd	a2,-256(s0)
    802042da:	eed43c23          	sd	a3,-264(s0)
    802042de:	f3043503          	ld	a0,-208(s0)
    802042e2:	f2843583          	ld	a1,-216(s0)
    802042e6:	f2043603          	ld	a2,-224(s0)
    802042ea:	f1843683          	ld	a3,-232(s0)
    802042ee:	eea43823          	sd	a0,-272(s0)
    802042f2:	eeb43423          	sd	a1,-280(s0)
    802042f6:	eec43023          	sd	a2,-288(s0)
    802042fa:	ecd43c23          	sd	a3,-296(s0)
    802042fe:	8bea                	mv	s7,s10
    80204300:	000a0363          	beqz	s4,80204306 <_ZN5alloc11collections5btree4node210Handle$LT$alloc..collections..btree..node..NodeRef$LT$alloc..collections..btree..node..marker..Mut$C$K$C$V$C$alloc..collections..btree..node..marker..Leaf$GT$$C$alloc..collections..btree..node..marker..Edge$GT$16insert_recursing17hef667d4ca15e7b51E+0x512>
    80204304:	8bda                	mv	s7,s6
    80204306:	322bd903          	lhu	s2,802(s7)
    8020430a:	2c8b8513          	addi	a0,s7,712
    8020430e:	001d8a93          	addi	s5,s11,1
    80204312:	003d9a13          	slli	s4,s11,0x3
    80204316:	014504b3          	add	s1,a0,s4
    8020431a:	006d9c13          	slli	s8,s11,0x6
    8020431e:	003a9c93          	slli	s9,s5,0x3
    80204322:	41b909b3          	sub	s3,s2,s11
    80204326:	05597663          	bgeu	s2,s5,80204372 <_ZN5alloc11collections5btree4node210Handle$LT$alloc..collections..btree..node..NodeRef$LT$alloc..collections..btree..node..marker..Mut$C$K$C$V$C$alloc..collections..btree..node..marker..Leaf$GT$$C$alloc..collections..btree..node..marker..Edge$GT$16insert_recursing17hef667d4ca15e7b51E+0x57e>
    8020432a:	e8043503          	ld	a0,-384(s0)
    8020432e:	e088                	sd	a0,0(s1)
    80204330:	ed043503          	ld	a0,-304(s0)
    80204334:	ec843583          	ld	a1,-312(s0)
    80204338:	ec043603          	ld	a2,-320(s0)
    8020433c:	eb843683          	ld	a3,-328(s0)
    80204340:	f8a43823          	sd	a0,-112(s0)
    80204344:	f8b43423          	sd	a1,-120(s0)
    80204348:	f8c43023          	sd	a2,-128(s0)
    8020434c:	f6d43c23          	sd	a3,-136(s0)
    80204350:	eb043503          	ld	a0,-336(s0)
    80204354:	ea843583          	ld	a1,-344(s0)
    80204358:	ea043603          	ld	a2,-352(s0)
    8020435c:	e9843683          	ld	a3,-360(s0)
    80204360:	f6a43823          	sd	a0,-144(s0)
    80204364:	f6b43423          	sd	a1,-152(s0)
    80204368:	f6c43023          	sd	a2,-160(s0)
    8020436c:	f4d43c23          	sd	a3,-168(s0)
    80204370:	a0bd                	j	802043de <_ZN5alloc11collections5btree4node210Handle$LT$alloc..collections..btree..node..NodeRef$LT$alloc..collections..btree..node..marker..Mut$C$K$C$V$C$alloc..collections..btree..node..marker..Leaf$GT$$C$alloc..collections..btree..node..marker..Edge$GT$16insert_recursing17hef667d4ca15e7b51E+0x5ea>
    80204372:	9566                	add	a0,a0,s9
    80204374:	00399613          	slli	a2,s3,0x3
    80204378:	85a6                	mv	a1,s1
    8020437a:	0001b097          	auipc	ra,0x1b
    8020437e:	d86080e7          	jalr	-634(ra) # 8021f100 <memmove>
    80204382:	e8043503          	ld	a0,-384(s0)
    80204386:	e088                	sd	a0,0(s1)
    80204388:	ed043503          	ld	a0,-304(s0)
    8020438c:	ec843583          	ld	a1,-312(s0)
    80204390:	ec043603          	ld	a2,-320(s0)
    80204394:	eb843683          	ld	a3,-328(s0)
    80204398:	f8a43823          	sd	a0,-112(s0)
    8020439c:	f8b43423          	sd	a1,-120(s0)
    802043a0:	f8c43023          	sd	a2,-128(s0)
    802043a4:	f6d43c23          	sd	a3,-136(s0)
    802043a8:	eb043503          	ld	a0,-336(s0)
    802043ac:	ea843583          	ld	a1,-344(s0)
    802043b0:	ea043603          	ld	a2,-352(s0)
    802043b4:	e9843683          	ld	a3,-360(s0)
    802043b8:	f6a43823          	sd	a0,-144(s0)
    802043bc:	f6b43423          	sd	a1,-152(s0)
    802043c0:	f6c43023          	sd	a2,-160(s0)
    802043c4:	f4d43c23          	sd	a3,-168(s0)
    802043c8:	018b85b3          	add	a1,s7,s8
    802043cc:	006a9513          	slli	a0,s5,0x6
    802043d0:	955e                	add	a0,a0,s7
    802043d2:	00699613          	slli	a2,s3,0x6
    802043d6:	0001b097          	auipc	ra,0x1b
    802043da:	d2a080e7          	jalr	-726(ra) # 8021f100 <memmove>
    802043de:	f9043503          	ld	a0,-112(s0)
    802043e2:	018b85b3          	add	a1,s7,s8
    802043e6:	fd88                	sd	a0,56(a1)
    802043e8:	f8843503          	ld	a0,-120(s0)
    802043ec:	f988                	sd	a0,48(a1)
    802043ee:	f8043503          	ld	a0,-128(s0)
    802043f2:	f588                	sd	a0,40(a1)
    802043f4:	f7843503          	ld	a0,-136(s0)
    802043f8:	f188                	sd	a0,32(a1)
    802043fa:	f7043503          	ld	a0,-144(s0)
    802043fe:	ed88                	sd	a0,24(a1)
    80204400:	f6843503          	ld	a0,-152(s0)
    80204404:	e988                	sd	a0,16(a1)
    80204406:	f6043503          	ld	a0,-160(s0)
    8020440a:	e588                	sd	a0,8(a1)
    8020440c:	f5843503          	ld	a0,-168(s0)
    80204410:	e188                	sd	a0,0(a1)
    80204412:	00290c13          	addi	s8,s2,2
    80204416:	002d8513          	addi	a0,s11,2
    8020441a:	328b8493          	addi	s1,s7,808
    8020441e:	01857c63          	bgeu	a0,s8,80204436 <_ZN5alloc11collections5btree4node210Handle$LT$alloc..collections..btree..node..NodeRef$LT$alloc..collections..btree..node..marker..Mut$C$K$C$V$C$alloc..collections..btree..node..marker..Leaf$GT$$C$alloc..collections..btree..node..marker..Edge$GT$16insert_recursing17hef667d4ca15e7b51E+0x642>
    80204422:	019485b3          	add	a1,s1,s9
    80204426:	050e                	slli	a0,a0,0x3
    80204428:	9526                	add	a0,a0,s1
    8020442a:	00399613          	slli	a2,s3,0x3
    8020442e:	0001b097          	auipc	ra,0x1b
    80204432:	cd2080e7          	jalr	-814(ra) # 8021f100 <memmove>
    80204436:	00190513          	addi	a0,s2,1
    8020443a:	019485b3          	add	a1,s1,s9
    8020443e:	e8843603          	ld	a2,-376(s0)
    80204442:	e190                	sd	a2,0(a1)
    80204444:	32ab9123          	sh	a0,802(s7)
    80204448:	c98afde3          	bgeu	s5,s8,802040e2 <_ZN5alloc11collections5btree4node210Handle$LT$alloc..collections..btree..node..NodeRef$LT$alloc..collections..btree..node..marker..Mut$C$K$C$V$C$alloc..collections..btree..node..marker..Leaf$GT$$C$alloc..collections..btree..node..marker..Edge$GT$16insert_recursing17hef667d4ca15e7b51E+0x2ee>
    8020444c:	014b85b3          	add	a1,s7,s4
    80204450:	33058593          	addi	a1,a1,816
    80204454:	6190                	ld	a2,0(a1)
    80204456:	0d85                	addi	s11,s11,1
    80204458:	2d763023          	sd	s7,704(a2)
    8020445c:	33b61023          	sh	s11,800(a2)
    80204460:	05a1                	addi	a1,a1,8
    80204462:	ffb519e3          	bne	a0,s11,80204454 <_ZN5alloc11collections5btree4node210Handle$LT$alloc..collections..btree..node..NodeRef$LT$alloc..collections..btree..node..marker..Mut$C$K$C$V$C$alloc..collections..btree..node..marker..Leaf$GT$$C$alloc..collections..btree..node..marker..Edge$GT$16insert_recursing17hef667d4ca15e7b51E+0x660>
    80204466:	b9b5                	j	802040e2 <_ZN5alloc11collections5btree4node210Handle$LT$alloc..collections..btree..node..NodeRef$LT$alloc..collections..btree..node..marker..Mut$C$K$C$V$C$alloc..collections..btree..node..marker..Leaf$GT$$C$alloc..collections..btree..node..marker..Edge$GT$16insert_recursing17hef667d4ca15e7b51E+0x2ee>
    80204468:	4c81                	li	s9,0
    8020446a:	e9043783          	ld	a5,-368(s0)
    8020446e:	ed043503          	ld	a0,-304(s0)
    80204472:	ec843583          	ld	a1,-312(s0)
    80204476:	ec043603          	ld	a2,-320(s0)
    8020447a:	eb843683          	ld	a3,-328(s0)
    8020447e:	e7043703          	ld	a4,-400(s0)
    80204482:	f328                	sd	a0,96(a4)
    80204484:	ef2c                	sd	a1,88(a4)
    80204486:	eb30                	sd	a2,80(a4)
    80204488:	e734                	sd	a3,72(a4)
    8020448a:	eb043503          	ld	a0,-336(s0)
    8020448e:	ea843583          	ld	a1,-344(s0)
    80204492:	ea043603          	ld	a2,-352(s0)
    80204496:	e9843683          	ld	a3,-360(s0)
    8020449a:	e328                	sd	a0,64(a4)
    8020449c:	ff0c                	sd	a1,56(a4)
    8020449e:	fb10                	sd	a2,48(a4)
    802044a0:	f714                	sd	a3,40(a4)
    802044a2:	e304                	sd	s1,0(a4)
    802044a4:	01a73423          	sd	s10,8(a4)
    802044a8:	01973823          	sd	s9,16(a4)
    802044ac:	01673c23          	sd	s6,24(a4)
    802044b0:	f31c                	sd	a5,32(a4)
    802044b2:	e6843503          	ld	a0,-408(s0)
    802044b6:	f728                	sd	a0,104(a4)
    802044b8:	a21d                	j	802045de <_ZN5alloc11collections5btree4node210Handle$LT$alloc..collections..btree..node..NodeRef$LT$alloc..collections..btree..node..marker..Mut$C$K$C$V$C$alloc..collections..btree..node..marker..Leaf$GT$$C$alloc..collections..btree..node..marker..Edge$GT$16insert_recursing17hef667d4ca15e7b51E+0x7ea>
    802044ba:	001a8913          	addi	s2,s5,1
    802044be:	2c8d0513          	addi	a0,s10,712
    802044c2:	00148b93          	addi	s7,s1,1
    802044c6:	00349b13          	slli	s6,s1,0x3
    802044ca:	016509b3          	add	s3,a0,s6
    802044ce:	003b9c93          	slli	s9,s7,0x3
    802044d2:	0954fb63          	bgeu	s1,s5,80204568 <_ZN5alloc11collections5btree4node210Handle$LT$alloc..collections..btree..node..NodeRef$LT$alloc..collections..btree..node..marker..Mut$C$K$C$V$C$alloc..collections..btree..node..marker..Leaf$GT$$C$alloc..collections..btree..node..marker..Edge$GT$16insert_recursing17hef667d4ca15e7b51E+0x774>
    802044d6:	9566                	add	a0,a0,s9
    802044d8:	409a8c33          	sub	s8,s5,s1
    802044dc:	003c1613          	slli	a2,s8,0x3
    802044e0:	e8c43823          	sd	a2,-368(s0)
    802044e4:	85ce                	mv	a1,s3
    802044e6:	0001b097          	auipc	ra,0x1b
    802044ea:	c1a080e7          	jalr	-998(ra) # 8021f100 <memmove>
    802044ee:	0149b023          	sd	s4,0(s3)
    802044f2:	00649513          	slli	a0,s1,0x6
    802044f6:	00ad09b3          	add	s3,s10,a0
    802044fa:	006b9513          	slli	a0,s7,0x6
    802044fe:	956a                	add	a0,a0,s10
    80204500:	006c1613          	slli	a2,s8,0x6
    80204504:	85ce                	mv	a1,s3
    80204506:	0001b097          	auipc	ra,0x1b
    8020450a:	bfa080e7          	jalr	-1030(ra) # 8021f100 <memmove>
    8020450e:	e9843503          	ld	a0,-360(s0)
    80204512:	00a9b023          	sd	a0,0(s3)
    80204516:	ea043503          	ld	a0,-352(s0)
    8020451a:	00a9b423          	sd	a0,8(s3)
    8020451e:	ea843503          	ld	a0,-344(s0)
    80204522:	00a9b823          	sd	a0,16(s3)
    80204526:	eb043503          	ld	a0,-336(s0)
    8020452a:	00a9bc23          	sd	a0,24(s3)
    8020452e:	eb843503          	ld	a0,-328(s0)
    80204532:	02a9b023          	sd	a0,32(s3)
    80204536:	ec043503          	ld	a0,-320(s0)
    8020453a:	02a9b423          	sd	a0,40(s3)
    8020453e:	ec843503          	ld	a0,-312(s0)
    80204542:	02a9b823          	sd	a0,48(s3)
    80204546:	ed043503          	ld	a0,-304(s0)
    8020454a:	02a9bc23          	sd	a0,56(s3)
    8020454e:	328d0513          	addi	a0,s10,808
    80204552:	019505b3          	add	a1,a0,s9
    80204556:	955a                	add	a0,a0,s6
    80204558:	0541                	addi	a0,a0,16
    8020455a:	e9043603          	ld	a2,-368(s0)
    8020455e:	0001b097          	auipc	ra,0x1b
    80204562:	ba2080e7          	jalr	-1118(ra) # 8021f100 <memmove>
    80204566:	a835                	j	802045a2 <_ZN5alloc11collections5btree4node210Handle$LT$alloc..collections..btree..node..NodeRef$LT$alloc..collections..btree..node..marker..Mut$C$K$C$V$C$alloc..collections..btree..node..marker..Leaf$GT$$C$alloc..collections..btree..node..marker..Edge$GT$16insert_recursing17hef667d4ca15e7b51E+0x7ae>
    80204568:	0149b023          	sd	s4,0(s3)
    8020456c:	ed043503          	ld	a0,-304(s0)
    80204570:	00649593          	slli	a1,s1,0x6
    80204574:	95ea                	add	a1,a1,s10
    80204576:	fd88                	sd	a0,56(a1)
    80204578:	ec843503          	ld	a0,-312(s0)
    8020457c:	f988                	sd	a0,48(a1)
    8020457e:	ec043503          	ld	a0,-320(s0)
    80204582:	f588                	sd	a0,40(a1)
    80204584:	eb843503          	ld	a0,-328(s0)
    80204588:	f188                	sd	a0,32(a1)
    8020458a:	eb043503          	ld	a0,-336(s0)
    8020458e:	ed88                	sd	a0,24(a1)
    80204590:	ea843503          	ld	a0,-344(s0)
    80204594:	e988                	sd	a0,16(a1)
    80204596:	ea043503          	ld	a0,-352(s0)
    8020459a:	e588                	sd	a0,8(a1)
    8020459c:	e9843503          	ld	a0,-360(s0)
    802045a0:	e188                	sd	a0,0(a1)
    802045a2:	e7043603          	ld	a2,-400(s0)
    802045a6:	019d0533          	add	a0,s10,s9
    802045aa:	002a8593          	addi	a1,s5,2
    802045ae:	33b53423          	sd	s11,808(a0)
    802045b2:	332d1123          	sh	s2,802(s10)
    802045b6:	00bbff63          	bgeu	s7,a1,802045d4 <_ZN5alloc11collections5btree4node210Handle$LT$alloc..collections..btree..node..NodeRef$LT$alloc..collections..btree..node..marker..Mut$C$K$C$V$C$alloc..collections..btree..node..marker..Leaf$GT$$C$alloc..collections..btree..node..marker..Edge$GT$16insert_recursing17hef667d4ca15e7b51E+0x7e0>
    802045ba:	016d0533          	add	a0,s10,s6
    802045be:	33050513          	addi	a0,a0,816
    802045c2:	610c                	ld	a1,0(a0)
    802045c4:	0485                	addi	s1,s1,1
    802045c6:	2da5b023          	sd	s10,704(a1)
    802045ca:	32959023          	sh	s1,800(a1)
    802045ce:	0521                	addi	a0,a0,8
    802045d0:	fe9919e3          	bne	s2,s1,802045c2 <_ZN5alloc11collections5btree4node210Handle$LT$alloc..collections..btree..node..NodeRef$LT$alloc..collections..btree..node..marker..Mut$C$K$C$V$C$alloc..collections..btree..node..marker..Leaf$GT$$C$alloc..collections..btree..node..marker..Edge$GT$16insert_recursing17hef667d4ca15e7b51E+0x7ce>
    802045d4:	00063423          	sd	zero,8(a2)
    802045d8:	e6843503          	ld	a0,-408(s0)
    802045dc:	f628                	sd	a0,104(a2)
    802045de:	60fa                	ld	ra,408(sp)
    802045e0:	645a                	ld	s0,400(sp)
    802045e2:	64ba                	ld	s1,392(sp)
    802045e4:	691a                	ld	s2,384(sp)
    802045e6:	79f6                	ld	s3,376(sp)
    802045e8:	7a56                	ld	s4,368(sp)
    802045ea:	7ab6                	ld	s5,360(sp)
    802045ec:	7b16                	ld	s6,352(sp)
    802045ee:	6bf6                	ld	s7,344(sp)
    802045f0:	6c56                	ld	s8,336(sp)
    802045f2:	6cb6                	ld	s9,328(sp)
    802045f4:	6d16                	ld	s10,320(sp)
    802045f6:	7df2                	ld	s11,312(sp)
    802045f8:	611d                	addi	sp,sp,416
    802045fa:	8082                	ret

00000000802045fc <.LBB52_52>:
    802045fc:	0001c517          	auipc	a0,0x1c
    80204600:	c2450513          	addi	a0,a0,-988 # 80220220 <.Lanon.d6099a4703f55f35884a06451ebc7765.14>

0000000080204604 <.LBB52_53>:
    80204604:	0001c617          	auipc	a2,0x1c
    80204608:	c4460613          	addi	a2,a2,-956 # 80220248 <.Lanon.d6099a4703f55f35884a06451ebc7765.15>
    8020460c:	02800593          	li	a1,40
    80204610:	00018097          	auipc	ra,0x18
    80204614:	b7e080e7          	jalr	-1154(ra) # 8021c18e <_ZN4core9panicking5panic17h183aba44d01f42adE>
	...

000000008020461a <.LBB52_54>:
    8020461a:	0001c517          	auipc	a0,0x1c
    8020461e:	c7650513          	addi	a0,a0,-906 # 80220290 <.Lanon.d6099a4703f55f35884a06451ebc7765.18>

0000000080204622 <.LBB52_55>:
    80204622:	0001c617          	auipc	a2,0x1c
    80204626:	ca660613          	addi	a2,a2,-858 # 802202c8 <.Lanon.d6099a4703f55f35884a06451ebc7765.19>
    8020462a:	03500593          	li	a1,53
    8020462e:	00018097          	auipc	ra,0x18
    80204632:	b60080e7          	jalr	-1184(ra) # 8021c18e <_ZN4core9panicking5panic17h183aba44d01f42adE>
    80204636:	0000                	unimp
    80204638:	38800513          	li	a0,904
    8020463c:	45a1                	li	a1,8
    8020463e:	00017097          	auipc	ra,0x17
    80204642:	7b4080e7          	jalr	1972(ra) # 8021bdf2 <_ZN5alloc5alloc18handle_alloc_error17h3b12d3b52c903b1cE>
	...

0000000080204648 <.LBB52_56>:
    80204648:	0001c617          	auipc	a2,0x1c
    8020464c:	c1860613          	addi	a2,a2,-1000 # 80220260 <.Lanon.d6099a4703f55f35884a06451ebc7765.16>
    80204650:	45ad                	li	a1,11
    80204652:	855e                	mv	a0,s7
    80204654:	00019097          	auipc	ra,0x19
    80204658:	434080e7          	jalr	1076(ra) # 8021da88 <_ZN4core5slice5index24slice_end_index_len_fail17he5846e131809ee70E>
	...

000000008020465e <.LBB52_57>:
    8020465e:	0001c617          	auipc	a2,0x1c
    80204662:	c1a60613          	addi	a2,a2,-998 # 80220278 <.Lanon.d6099a4703f55f35884a06451ebc7765.17>
    80204666:	45b1                	li	a1,12
    80204668:	00019097          	auipc	ra,0x19
    8020466c:	420080e7          	jalr	1056(ra) # 8021da88 <_ZN4core5slice5index24slice_end_index_len_fail17he5846e131809ee70E>
    80204670:	0000                	unimp
    80204672:	32800513          	li	a0,808
    80204676:	45a1                	li	a1,8
    80204678:	00017097          	auipc	ra,0x17
    8020467c:	77a080e7          	jalr	1914(ra) # 8021bdf2 <_ZN5alloc5alloc18handle_alloc_error17h3b12d3b52c903b1cE>
	...

0000000080204682 <.LBB52_58>:
    80204682:	0001c617          	auipc	a2,0x1c
    80204686:	bde60613          	addi	a2,a2,-1058 # 80220260 <.Lanon.d6099a4703f55f35884a06451ebc7765.16>
    8020468a:	45ad                	li	a1,11
    8020468c:	8556                	mv	a0,s5
    8020468e:	00019097          	auipc	ra,0x19
    80204692:	3fa080e7          	jalr	1018(ra) # 8021da88 <_ZN4core5slice5index24slice_end_index_len_fail17he5846e131809ee70E>
	...

0000000080204698 <_ZN5alloc11collections5btree4node29BalancingContext$LT$K$C$V$GT$15bulk_steal_left17h4350871c49b01baaE>:
    80204698:	7159                	addi	sp,sp,-112
    8020469a:	f486                	sd	ra,104(sp)
    8020469c:	f0a2                	sd	s0,96(sp)
    8020469e:	eca6                	sd	s1,88(sp)
    802046a0:	e8ca                	sd	s2,80(sp)
    802046a2:	e4ce                	sd	s3,72(sp)
    802046a4:	e0d2                	sd	s4,64(sp)
    802046a6:	fc56                	sd	s5,56(sp)
    802046a8:	f85a                	sd	s6,48(sp)
    802046aa:	f45e                	sd	s7,40(sp)
    802046ac:	f062                	sd	s8,32(sp)
    802046ae:	ec66                	sd	s9,24(sp)
    802046b0:	e86a                	sd	s10,16(sp)
    802046b2:	e46e                	sd	s11,8(sp)
    802046b4:	1880                	addi	s0,sp,112
    802046b6:	8aaa                	mv	s5,a0
    802046b8:	01853b03          	ld	s6,24(a0)
    802046bc:	062b5603          	lhu	a2,98(s6)
    802046c0:	00b60bb3          	add	s7,a2,a1
    802046c4:	452d                	li	a0,11
    802046c6:	0f756c63          	bltu	a0,s7,802047be <.LBB53_14>
    802046ca:	84ae                	mv	s1,a1
    802046cc:	008abc03          	ld	s8,8(s5)
    802046d0:	062c5c83          	lhu	s9,98(s8)
    802046d4:	10bce463          	bltu	s9,a1,802047dc <.LBB53_16>
    802046d8:	409c8d33          	sub	s10,s9,s1
    802046dc:	07ac1123          	sh	s10,98(s8)
    802046e0:	077b1123          	sh	s7,98(s6)
    802046e4:	008b0a13          	addi	s4,s6,8
    802046e8:	00349913          	slli	s2,s1,0x3
    802046ec:	012a0533          	add	a0,s4,s2
    802046f0:	00361993          	slli	s3,a2,0x3
    802046f4:	85d2                	mv	a1,s4
    802046f6:	864e                	mv	a2,s3
    802046f8:	0001b097          	auipc	ra,0x1b
    802046fc:	a08080e7          	jalr	-1528(ra) # 8021f100 <memmove>
    80204700:	001d0593          	addi	a1,s10,1
    80204704:	40bc8533          	sub	a0,s9,a1
    80204708:	fff48613          	addi	a2,s1,-1
    8020470c:	0ec51763          	bne	a0,a2,802047fa <.LBB53_18>
    80204710:	008c0493          	addi	s1,s8,8
    80204714:	00359c93          	slli	s9,a1,0x3
    80204718:	019485b3          	add	a1,s1,s9
    8020471c:	00351d93          	slli	s11,a0,0x3
    80204720:	8552                	mv	a0,s4
    80204722:	866e                	mv	a2,s11
    80204724:	0001b097          	auipc	ra,0x1b
    80204728:	ca6080e7          	jalr	-858(ra) # 8021f3ca <memcpy>
    8020472c:	003d1513          	slli	a0,s10,0x3
    80204730:	030ab583          	ld	a1,48(s5)
    80204734:	028ab603          	ld	a2,40(s5)
    80204738:	9526                	add	a0,a0,s1
    8020473a:	6108                	ld	a0,0(a0)
    8020473c:	058e                	slli	a1,a1,0x3
    8020473e:	95b2                	add	a1,a1,a2
    80204740:	6590                	ld	a2,8(a1)
    80204742:	e588                	sd	a0,8(a1)
    80204744:	01ba0533          	add	a0,s4,s11
    80204748:	e110                	sd	a2,0(a0)
    8020474a:	000ab583          	ld	a1,0(s5)
    8020474e:	010ab503          	ld	a0,16(s5)
    80204752:	c5b1                	beqz	a1,8020479e <_ZN5alloc11collections5btree4node29BalancingContext$LT$K$C$V$GT$15bulk_steal_left17h4350871c49b01baaE+0x106>
    80204754:	cd45                	beqz	a0,8020480c <.LBB53_20>
    80204756:	068b0493          	addi	s1,s6,104
    8020475a:	01248533          	add	a0,s1,s2
    8020475e:	00898613          	addi	a2,s3,8
    80204762:	85a6                	mv	a1,s1
    80204764:	0001b097          	auipc	ra,0x1b
    80204768:	99c080e7          	jalr	-1636(ra) # 8021f100 <memmove>
    8020476c:	019c0533          	add	a0,s8,s9
    80204770:	06850593          	addi	a1,a0,104
    80204774:	8526                	mv	a0,s1
    80204776:	864a                	mv	a2,s2
    80204778:	0001b097          	auipc	ra,0x1b
    8020477c:	c52080e7          	jalr	-942(ra) # 8021f3ca <memcpy>
    80204780:	4581                	li	a1,0
    80204782:	001b8513          	addi	a0,s7,1
    80204786:	6090                	ld	a2,0(s1)
    80204788:	00158693          	addi	a3,a1,1
    8020478c:	01663023          	sd	s6,0(a2)
    80204790:	06b61023          	sh	a1,96(a2)
    80204794:	04a1                	addi	s1,s1,8
    80204796:	85b6                	mv	a1,a3
    80204798:	fed517e3          	bne	a0,a3,80204786 <_ZN5alloc11collections5btree4node29BalancingContext$LT$K$C$V$GT$15bulk_steal_left17h4350871c49b01baaE+0xee>
    8020479c:	a011                	j	802047a0 <_ZN5alloc11collections5btree4node29BalancingContext$LT$K$C$V$GT$15bulk_steal_left17h4350871c49b01baaE+0x108>
    8020479e:	e53d                	bnez	a0,8020480c <.LBB53_20>
    802047a0:	70a6                	ld	ra,104(sp)
    802047a2:	7406                	ld	s0,96(sp)
    802047a4:	64e6                	ld	s1,88(sp)
    802047a6:	6946                	ld	s2,80(sp)
    802047a8:	69a6                	ld	s3,72(sp)
    802047aa:	6a06                	ld	s4,64(sp)
    802047ac:	7ae2                	ld	s5,56(sp)
    802047ae:	7b42                	ld	s6,48(sp)
    802047b0:	7ba2                	ld	s7,40(sp)
    802047b2:	7c02                	ld	s8,32(sp)
    802047b4:	6ce2                	ld	s9,24(sp)
    802047b6:	6d42                	ld	s10,16(sp)
    802047b8:	6da2                	ld	s11,8(sp)
    802047ba:	6165                	addi	sp,sp,112
    802047bc:	8082                	ret

00000000802047be <.LBB53_14>:
    802047be:	0001c517          	auipc	a0,0x1c
    802047c2:	b2250513          	addi	a0,a0,-1246 # 802202e0 <.Lanon.d6099a4703f55f35884a06451ebc7765.20>

00000000802047c6 <.LBB53_15>:
    802047c6:	0001c617          	auipc	a2,0x1c
    802047ca:	b5260613          	addi	a2,a2,-1198 # 80220318 <.Lanon.d6099a4703f55f35884a06451ebc7765.21>
    802047ce:	03300593          	li	a1,51
    802047d2:	00018097          	auipc	ra,0x18
    802047d6:	9bc080e7          	jalr	-1604(ra) # 8021c18e <_ZN4core9panicking5panic17h183aba44d01f42adE>
	...

00000000802047dc <.LBB53_16>:
    802047dc:	0001c517          	auipc	a0,0x1c
    802047e0:	b5450513          	addi	a0,a0,-1196 # 80220330 <.Lanon.d6099a4703f55f35884a06451ebc7765.22>

00000000802047e4 <.LBB53_17>:
    802047e4:	0001c617          	auipc	a2,0x1c
    802047e8:	b7460613          	addi	a2,a2,-1164 # 80220358 <.Lanon.d6099a4703f55f35884a06451ebc7765.23>
    802047ec:	02700593          	li	a1,39
    802047f0:	00018097          	auipc	ra,0x18
    802047f4:	99e080e7          	jalr	-1634(ra) # 8021c18e <_ZN4core9panicking5panic17h183aba44d01f42adE>
	...

00000000802047fa <.LBB53_18>:
    802047fa:	0001c517          	auipc	a0,0x1c
    802047fe:	a2650513          	addi	a0,a0,-1498 # 80220220 <.Lanon.d6099a4703f55f35884a06451ebc7765.14>

0000000080204802 <.LBB53_19>:
    80204802:	0001c617          	auipc	a2,0x1c
    80204806:	a4660613          	addi	a2,a2,-1466 # 80220248 <.Lanon.d6099a4703f55f35884a06451ebc7765.15>
    8020480a:	a809                	j	8020481c <.LBB53_21+0x8>

000000008020480c <.LBB53_20>:
    8020480c:	0001c517          	auipc	a0,0x1c
    80204810:	b6450513          	addi	a0,a0,-1180 # 80220370 <.Lanon.d6099a4703f55f35884a06451ebc7765.24>

0000000080204814 <.LBB53_21>:
    80204814:	0001c617          	auipc	a2,0x1c
    80204818:	b8460613          	addi	a2,a2,-1148 # 80220398 <.Lanon.d6099a4703f55f35884a06451ebc7765.25>
    8020481c:	02800593          	li	a1,40
    80204820:	00018097          	auipc	ra,0x18
    80204824:	96e080e7          	jalr	-1682(ra) # 8021c18e <_ZN4core9panicking5panic17h183aba44d01f42adE>
	...

000000008020482a <_ZN5alloc11collections5btree4node29BalancingContext$LT$K$C$V$GT$15bulk_steal_left17ha11aba44fd3270cdE>:
    8020482a:	7119                	addi	sp,sp,-128
    8020482c:	fc86                	sd	ra,120(sp)
    8020482e:	f8a2                	sd	s0,112(sp)
    80204830:	f4a6                	sd	s1,104(sp)
    80204832:	f0ca                	sd	s2,96(sp)
    80204834:	ecce                	sd	s3,88(sp)
    80204836:	e8d2                	sd	s4,80(sp)
    80204838:	e4d6                	sd	s5,72(sp)
    8020483a:	e0da                	sd	s6,64(sp)
    8020483c:	fc5e                	sd	s7,56(sp)
    8020483e:	f862                	sd	s8,48(sp)
    80204840:	f466                	sd	s9,40(sp)
    80204842:	f06a                	sd	s10,32(sp)
    80204844:	ec6e                	sd	s11,24(sp)
    80204846:	0100                	addi	s0,sp,128
    80204848:	8aaa                	mv	s5,a0
    8020484a:	01853b83          	ld	s7,24(a0)
    8020484e:	0babd603          	lhu	a2,186(s7)
    80204852:	89ae                	mv	s3,a1
    80204854:	95b2                	add	a1,a1,a2
    80204856:	452d                	li	a0,11
    80204858:	12b56e63          	bltu	a0,a1,80204994 <.LBB56_14>
    8020485c:	008abc83          	ld	s9,8(s5)
    80204860:	0bacdd03          	lhu	s10,186(s9)
    80204864:	153d6763          	bltu	s10,s3,802049b2 <.LBB56_16>
    80204868:	413d0db3          	sub	s11,s10,s3
    8020486c:	0bbc9d23          	sh	s11,186(s9)
    80204870:	f8b43823          	sd	a1,-112(s0)
    80204874:	0abb9d23          	sh	a1,186(s7)
    80204878:	008b8a13          	addi	s4,s7,8
    8020487c:	00399913          	slli	s2,s3,0x3
    80204880:	012a0533          	add	a0,s4,s2
    80204884:	00361493          	slli	s1,a2,0x3
    80204888:	85d2                	mv	a1,s4
    8020488a:	8626                	mv	a2,s1
    8020488c:	0001b097          	auipc	ra,0x1b
    80204890:	874080e7          	jalr	-1932(ra) # 8021f100 <memmove>
    80204894:	060b8b13          	addi	s6,s7,96
    80204898:	012b0533          	add	a0,s6,s2
    8020489c:	85da                	mv	a1,s6
    8020489e:	f8943423          	sd	s1,-120(s0)
    802048a2:	8626                	mv	a2,s1
    802048a4:	0001b097          	auipc	ra,0x1b
    802048a8:	85c080e7          	jalr	-1956(ra) # 8021f100 <memmove>
    802048ac:	001d8593          	addi	a1,s11,1
    802048b0:	40bd0533          	sub	a0,s10,a1
    802048b4:	fff98613          	addi	a2,s3,-1
    802048b8:	10c51c63          	bne	a0,a2,802049d0 <.LBB56_18>
    802048bc:	008c8c13          	addi	s8,s9,8
    802048c0:	00359d13          	slli	s10,a1,0x3
    802048c4:	01ac05b3          	add	a1,s8,s10
    802048c8:	00351493          	slli	s1,a0,0x3
    802048cc:	8552                	mv	a0,s4
    802048ce:	8626                	mv	a2,s1
    802048d0:	0001b097          	auipc	ra,0x1b
    802048d4:	afa080e7          	jalr	-1286(ra) # 8021f3ca <memcpy>
    802048d8:	060c8993          	addi	s3,s9,96
    802048dc:	01a985b3          	add	a1,s3,s10
    802048e0:	855a                	mv	a0,s6
    802048e2:	8626                	mv	a2,s1
    802048e4:	0001b097          	auipc	ra,0x1b
    802048e8:	ae6080e7          	jalr	-1306(ra) # 8021f3ca <memcpy>
    802048ec:	003d9513          	slli	a0,s11,0x3
    802048f0:	00ac05b3          	add	a1,s8,a0
    802048f4:	954e                	add	a0,a0,s3
    802048f6:	030ab603          	ld	a2,48(s5)
    802048fa:	028ab683          	ld	a3,40(s5)
    802048fe:	618c                	ld	a1,0(a1)
    80204900:	6108                	ld	a0,0(a0)
    80204902:	060e                	slli	a2,a2,0x3
    80204904:	9636                	add	a2,a2,a3
    80204906:	6614                	ld	a3,8(a2)
    80204908:	e60c                	sd	a1,8(a2)
    8020490a:	722c                	ld	a1,96(a2)
    8020490c:	f228                	sd	a0,96(a2)
    8020490e:	009a0533          	add	a0,s4,s1
    80204912:	e114                	sd	a3,0(a0)
    80204914:	009b0533          	add	a0,s6,s1
    80204918:	e10c                	sd	a1,0(a0)
    8020491a:	000ab583          	ld	a1,0(s5)
    8020491e:	010ab503          	ld	a0,16(s5)
    80204922:	c9a9                	beqz	a1,80204974 <_ZN5alloc11collections5btree4node29BalancingContext$LT$K$C$V$GT$15bulk_steal_left17ha11aba44fd3270cdE+0x14a>
    80204924:	cd5d                	beqz	a0,802049e2 <.LBB56_20>
    80204926:	0c0b8493          	addi	s1,s7,192
    8020492a:	01248533          	add	a0,s1,s2
    8020492e:	f8843583          	ld	a1,-120(s0)
    80204932:	00858613          	addi	a2,a1,8
    80204936:	85a6                	mv	a1,s1
    80204938:	0001a097          	auipc	ra,0x1a
    8020493c:	7c8080e7          	jalr	1992(ra) # 8021f100 <memmove>
    80204940:	01ac8533          	add	a0,s9,s10
    80204944:	0c050593          	addi	a1,a0,192
    80204948:	8526                	mv	a0,s1
    8020494a:	864a                	mv	a2,s2
    8020494c:	0001b097          	auipc	ra,0x1b
    80204950:	a7e080e7          	jalr	-1410(ra) # 8021f3ca <memcpy>
    80204954:	4581                	li	a1,0
    80204956:	f9043503          	ld	a0,-112(s0)
    8020495a:	0505                	addi	a0,a0,1
    8020495c:	6090                	ld	a2,0(s1)
    8020495e:	00158693          	addi	a3,a1,1
    80204962:	01763023          	sd	s7,0(a2)
    80204966:	0ab61c23          	sh	a1,184(a2)
    8020496a:	04a1                	addi	s1,s1,8
    8020496c:	85b6                	mv	a1,a3
    8020496e:	fed517e3          	bne	a0,a3,8020495c <_ZN5alloc11collections5btree4node29BalancingContext$LT$K$C$V$GT$15bulk_steal_left17ha11aba44fd3270cdE+0x132>
    80204972:	a011                	j	80204976 <_ZN5alloc11collections5btree4node29BalancingContext$LT$K$C$V$GT$15bulk_steal_left17ha11aba44fd3270cdE+0x14c>
    80204974:	e53d                	bnez	a0,802049e2 <.LBB56_20>
    80204976:	70e6                	ld	ra,120(sp)
    80204978:	7446                	ld	s0,112(sp)
    8020497a:	74a6                	ld	s1,104(sp)
    8020497c:	7906                	ld	s2,96(sp)
    8020497e:	69e6                	ld	s3,88(sp)
    80204980:	6a46                	ld	s4,80(sp)
    80204982:	6aa6                	ld	s5,72(sp)
    80204984:	6b06                	ld	s6,64(sp)
    80204986:	7be2                	ld	s7,56(sp)
    80204988:	7c42                	ld	s8,48(sp)
    8020498a:	7ca2                	ld	s9,40(sp)
    8020498c:	7d02                	ld	s10,32(sp)
    8020498e:	6de2                	ld	s11,24(sp)
    80204990:	6109                	addi	sp,sp,128
    80204992:	8082                	ret

0000000080204994 <.LBB56_14>:
    80204994:	0001c517          	auipc	a0,0x1c
    80204998:	94c50513          	addi	a0,a0,-1716 # 802202e0 <.Lanon.d6099a4703f55f35884a06451ebc7765.20>

000000008020499c <.LBB56_15>:
    8020499c:	0001c617          	auipc	a2,0x1c
    802049a0:	97c60613          	addi	a2,a2,-1668 # 80220318 <.Lanon.d6099a4703f55f35884a06451ebc7765.21>
    802049a4:	03300593          	li	a1,51
    802049a8:	00017097          	auipc	ra,0x17
    802049ac:	7e6080e7          	jalr	2022(ra) # 8021c18e <_ZN4core9panicking5panic17h183aba44d01f42adE>
	...

00000000802049b2 <.LBB56_16>:
    802049b2:	0001c517          	auipc	a0,0x1c
    802049b6:	97e50513          	addi	a0,a0,-1666 # 80220330 <.Lanon.d6099a4703f55f35884a06451ebc7765.22>

00000000802049ba <.LBB56_17>:
    802049ba:	0001c617          	auipc	a2,0x1c
    802049be:	99e60613          	addi	a2,a2,-1634 # 80220358 <.Lanon.d6099a4703f55f35884a06451ebc7765.23>
    802049c2:	02700593          	li	a1,39
    802049c6:	00017097          	auipc	ra,0x17
    802049ca:	7c8080e7          	jalr	1992(ra) # 8021c18e <_ZN4core9panicking5panic17h183aba44d01f42adE>
	...

00000000802049d0 <.LBB56_18>:
    802049d0:	0001c517          	auipc	a0,0x1c
    802049d4:	85050513          	addi	a0,a0,-1968 # 80220220 <.Lanon.d6099a4703f55f35884a06451ebc7765.14>

00000000802049d8 <.LBB56_19>:
    802049d8:	0001c617          	auipc	a2,0x1c
    802049dc:	87060613          	addi	a2,a2,-1936 # 80220248 <.Lanon.d6099a4703f55f35884a06451ebc7765.15>
    802049e0:	a809                	j	802049f2 <.LBB56_21+0x8>

00000000802049e2 <.LBB56_20>:
    802049e2:	0001c517          	auipc	a0,0x1c
    802049e6:	98e50513          	addi	a0,a0,-1650 # 80220370 <.Lanon.d6099a4703f55f35884a06451ebc7765.24>

00000000802049ea <.LBB56_21>:
    802049ea:	0001c617          	auipc	a2,0x1c
    802049ee:	9ae60613          	addi	a2,a2,-1618 # 80220398 <.Lanon.d6099a4703f55f35884a06451ebc7765.25>
    802049f2:	02800593          	li	a1,40
    802049f6:	00017097          	auipc	ra,0x17
    802049fa:	798080e7          	jalr	1944(ra) # 8021c18e <_ZN4core9panicking5panic17h183aba44d01f42adE>
	...

0000000080204a00 <_ZN5alloc11collections5btree4node29BalancingContext$LT$K$C$V$GT$16bulk_steal_right17h26b2b9f964634b2cE>:
    80204a00:	7175                	addi	sp,sp,-144
    80204a02:	e506                	sd	ra,136(sp)
    80204a04:	e122                	sd	s0,128(sp)
    80204a06:	fca6                	sd	s1,120(sp)
    80204a08:	f8ca                	sd	s2,112(sp)
    80204a0a:	f4ce                	sd	s3,104(sp)
    80204a0c:	f0d2                	sd	s4,96(sp)
    80204a0e:	ecd6                	sd	s5,88(sp)
    80204a10:	e8da                	sd	s6,80(sp)
    80204a12:	e4de                	sd	s7,72(sp)
    80204a14:	e0e2                	sd	s8,64(sp)
    80204a16:	fc66                	sd	s9,56(sp)
    80204a18:	f86a                	sd	s10,48(sp)
    80204a1a:	f46e                	sd	s11,40(sp)
    80204a1c:	0900                	addi	s0,sp,144
    80204a1e:	892a                	mv	s2,a0
    80204a20:	00853c83          	ld	s9,8(a0)
    80204a24:	0bacd783          	lhu	a5,186(s9)
    80204a28:	89ae                	mv	s3,a1
    80204a2a:	95be                	add	a1,a1,a5
    80204a2c:	452d                	li	a0,11
    80204a2e:	16b56b63          	bltu	a0,a1,80204ba4 <.LBB58_18>
    80204a32:	01893c03          	ld	s8,24(s2)
    80204a36:	0bac5503          	lhu	a0,186(s8)
    80204a3a:	19356463          	bltu	a0,s3,80204bc2 <.LBB58_20>
    80204a3e:	41350bb3          	sub	s7,a0,s3
    80204a42:	0abc9d23          	sh	a1,186(s9)
    80204a46:	0b7c1d23          	sh	s7,186(s8)
    80204a4a:	fff98893          	addi	a7,s3,-1
    80204a4e:	008c0a93          	addi	s5,s8,8
    80204a52:	00389493          	slli	s1,a7,0x3
    80204a56:	009a8533          	add	a0,s5,s1
    80204a5a:	6108                	ld	a0,0(a0)
    80204a5c:	060c0a13          	addi	s4,s8,96
    80204a60:	03093603          	ld	a2,48(s2)
    80204a64:	02893683          	ld	a3,40(s2)
    80204a68:	009a0733          	add	a4,s4,s1
    80204a6c:	6318                	ld	a4,0(a4)
    80204a6e:	060e                	slli	a2,a2,0x3
    80204a70:	9636                	add	a2,a2,a3
    80204a72:	6614                	ld	a3,8(a2)
    80204a74:	e608                	sd	a0,8(a2)
    80204a76:	06063803          	ld	a6,96(a2)
    80204a7a:	f238                	sd	a4,96(a2)
    80204a7c:	008c8513          	addi	a0,s9,8
    80204a80:	00379713          	slli	a4,a5,0x3
    80204a84:	00e50633          	add	a2,a0,a4
    80204a88:	e214                	sd	a3,0(a2)
    80204a8a:	060c8b13          	addi	s6,s9,96
    80204a8e:	f6e43c23          	sd	a4,-136(s0)
    80204a92:	00eb0633          	add	a2,s6,a4
    80204a96:	f8f43423          	sd	a5,-120(s0)
    80204a9a:	00178d93          	addi	s11,a5,1
    80204a9e:	f8b43023          	sd	a1,-128(s0)
    80204aa2:	41b586b3          	sub	a3,a1,s11
    80204aa6:	01063023          	sd	a6,0(a2)
    80204aaa:	12d89563          	bne	a7,a3,80204bd4 <.LBB58_22>
    80204aae:	003d9d13          	slli	s10,s11,0x3
    80204ab2:	956a                	add	a0,a0,s10
    80204ab4:	85d6                	mv	a1,s5
    80204ab6:	8626                	mv	a2,s1
    80204ab8:	0001b097          	auipc	ra,0x1b
    80204abc:	912080e7          	jalr	-1774(ra) # 8021f3ca <memcpy>
    80204ac0:	01ab0533          	add	a0,s6,s10
    80204ac4:	85d2                	mv	a1,s4
    80204ac6:	8626                	mv	a2,s1
    80204ac8:	0001b097          	auipc	ra,0x1b
    80204acc:	902080e7          	jalr	-1790(ra) # 8021f3ca <memcpy>
    80204ad0:	00399b13          	slli	s6,s3,0x3
    80204ad4:	016a85b3          	add	a1,s5,s6
    80204ad8:	f9743823          	sd	s7,-112(s0)
    80204adc:	0b8e                	slli	s7,s7,0x3
    80204ade:	8556                	mv	a0,s5
    80204ae0:	865e                	mv	a2,s7
    80204ae2:	0001a097          	auipc	ra,0x1a
    80204ae6:	61e080e7          	jalr	1566(ra) # 8021f100 <memmove>
    80204aea:	016a05b3          	add	a1,s4,s6
    80204aee:	8552                	mv	a0,s4
    80204af0:	865e                	mv	a2,s7
    80204af2:	0001a097          	auipc	ra,0x1a
    80204af6:	60e080e7          	jalr	1550(ra) # 8021f100 <memmove>
    80204afa:	00093583          	ld	a1,0(s2)
    80204afe:	01093503          	ld	a0,16(s2)
    80204b02:	c1c9                	beqz	a1,80204b84 <_ZN5alloc11collections5btree4node29BalancingContext$LT$K$C$V$GT$16bulk_steal_right17h26b2b9f964634b2cE+0x184>
    80204b04:	c16d                	beqz	a0,80204be6 <.LBB58_24>
    80204b06:	0c0c0493          	addi	s1,s8,192
    80204b0a:	01ac8533          	add	a0,s9,s10
    80204b0e:	0c050513          	addi	a0,a0,192
    80204b12:	85a6                	mv	a1,s1
    80204b14:	865a                	mv	a2,s6
    80204b16:	0001b097          	auipc	ra,0x1b
    80204b1a:	8b4080e7          	jalr	-1868(ra) # 8021f3ca <memcpy>
    80204b1e:	016485b3          	add	a1,s1,s6
    80204b22:	008b8613          	addi	a2,s7,8
    80204b26:	8526                	mv	a0,s1
    80204b28:	0001a097          	auipc	ra,0x1a
    80204b2c:	5d8080e7          	jalr	1496(ra) # 8021f100 <memmove>
    80204b30:	f8843503          	ld	a0,-120(s0)
    80204b34:	f8043583          	ld	a1,-128(s0)
    80204b38:	02b57163          	bgeu	a0,a1,80204b5a <_ZN5alloc11collections5btree4node29BalancingContext$LT$K$C$V$GT$16bulk_steal_right17h26b2b9f964634b2cE+0x15a>
    80204b3c:	f7843503          	ld	a0,-136(s0)
    80204b40:	9566                	add	a0,a0,s9
    80204b42:	0c850513          	addi	a0,a0,200
    80204b46:	610c                	ld	a1,0(a0)
    80204b48:	0bb59c23          	sh	s11,184(a1)
    80204b4c:	0d85                	addi	s11,s11,1
    80204b4e:	0195b023          	sd	s9,0(a1)
    80204b52:	19fd                	addi	s3,s3,-1
    80204b54:	0521                	addi	a0,a0,8
    80204b56:	fe0998e3          	bnez	s3,80204b46 <_ZN5alloc11collections5btree4node29BalancingContext$LT$K$C$V$GT$16bulk_steal_right17h26b2b9f964634b2cE+0x146>
    80204b5a:	557d                	li	a0,-1
    80204b5c:	f9043583          	ld	a1,-112(s0)
    80204b60:	02a58363          	beq	a1,a0,80204b86 <_ZN5alloc11collections5btree4node29BalancingContext$LT$K$C$V$GT$16bulk_steal_right17h26b2b9f964634b2cE+0x186>
    80204b64:	4581                	li	a1,0
    80204b66:	f9043503          	ld	a0,-112(s0)
    80204b6a:	0505                	addi	a0,a0,1
    80204b6c:	6090                	ld	a2,0(s1)
    80204b6e:	00158693          	addi	a3,a1,1
    80204b72:	01863023          	sd	s8,0(a2)
    80204b76:	0ab61c23          	sh	a1,184(a2)
    80204b7a:	04a1                	addi	s1,s1,8
    80204b7c:	85b6                	mv	a1,a3
    80204b7e:	fed517e3          	bne	a0,a3,80204b6c <_ZN5alloc11collections5btree4node29BalancingContext$LT$K$C$V$GT$16bulk_steal_right17h26b2b9f964634b2cE+0x16c>
    80204b82:	a011                	j	80204b86 <_ZN5alloc11collections5btree4node29BalancingContext$LT$K$C$V$GT$16bulk_steal_right17h26b2b9f964634b2cE+0x186>
    80204b84:	e12d                	bnez	a0,80204be6 <.LBB58_24>
    80204b86:	60aa                	ld	ra,136(sp)
    80204b88:	640a                	ld	s0,128(sp)
    80204b8a:	74e6                	ld	s1,120(sp)
    80204b8c:	7946                	ld	s2,112(sp)
    80204b8e:	79a6                	ld	s3,104(sp)
    80204b90:	7a06                	ld	s4,96(sp)
    80204b92:	6ae6                	ld	s5,88(sp)
    80204b94:	6b46                	ld	s6,80(sp)
    80204b96:	6ba6                	ld	s7,72(sp)
    80204b98:	6c06                	ld	s8,64(sp)
    80204b9a:	7ce2                	ld	s9,56(sp)
    80204b9c:	7d42                	ld	s10,48(sp)
    80204b9e:	7da2                	ld	s11,40(sp)
    80204ba0:	6149                	addi	sp,sp,144
    80204ba2:	8082                	ret

0000000080204ba4 <.LBB58_18>:
    80204ba4:	0001c517          	auipc	a0,0x1c
    80204ba8:	80c50513          	addi	a0,a0,-2036 # 802203b0 <.Lanon.d6099a4703f55f35884a06451ebc7765.26>

0000000080204bac <.LBB58_19>:
    80204bac:	0001c617          	auipc	a2,0x1c
    80204bb0:	83c60613          	addi	a2,a2,-1988 # 802203e8 <.Lanon.d6099a4703f55f35884a06451ebc7765.27>
    80204bb4:	03200593          	li	a1,50
    80204bb8:	00017097          	auipc	ra,0x17
    80204bbc:	5d6080e7          	jalr	1494(ra) # 8021c18e <_ZN4core9panicking5panic17h183aba44d01f42adE>
	...

0000000080204bc2 <.LBB58_20>:
    80204bc2:	0001c517          	auipc	a0,0x1c
    80204bc6:	83e50513          	addi	a0,a0,-1986 # 80220400 <.Lanon.d6099a4703f55f35884a06451ebc7765.28>

0000000080204bca <.LBB58_21>:
    80204bca:	0001c617          	auipc	a2,0x1c
    80204bce:	85e60613          	addi	a2,a2,-1954 # 80220428 <.Lanon.d6099a4703f55f35884a06451ebc7765.29>
    80204bd2:	a015                	j	80204bf6 <.LBB58_25+0x8>

0000000080204bd4 <.LBB58_22>:
    80204bd4:	0001b517          	auipc	a0,0x1b
    80204bd8:	64c50513          	addi	a0,a0,1612 # 80220220 <.Lanon.d6099a4703f55f35884a06451ebc7765.14>

0000000080204bdc <.LBB58_23>:
    80204bdc:	0001b617          	auipc	a2,0x1b
    80204be0:	66c60613          	addi	a2,a2,1644 # 80220248 <.Lanon.d6099a4703f55f35884a06451ebc7765.15>
    80204be4:	a809                	j	80204bf6 <.LBB58_25+0x8>

0000000080204be6 <.LBB58_24>:
    80204be6:	0001b517          	auipc	a0,0x1b
    80204bea:	78a50513          	addi	a0,a0,1930 # 80220370 <.Lanon.d6099a4703f55f35884a06451ebc7765.24>

0000000080204bee <.LBB58_25>:
    80204bee:	0001c617          	auipc	a2,0x1c
    80204bf2:	85260613          	addi	a2,a2,-1966 # 80220440 <.Lanon.d6099a4703f55f35884a06451ebc7765.30>
    80204bf6:	02800593          	li	a1,40
    80204bfa:	00017097          	auipc	ra,0x17
    80204bfe:	594080e7          	jalr	1428(ra) # 8021c18e <_ZN4core9panicking5panic17h183aba44d01f42adE>
	...

0000000080204c04 <_ZN5alloc11collections5btree4node29BalancingContext$LT$K$C$V$GT$16bulk_steal_right17h8ea0b4ffecc2713cE>:
    80204c04:	7119                	addi	sp,sp,-128
    80204c06:	fc86                	sd	ra,120(sp)
    80204c08:	f8a2                	sd	s0,112(sp)
    80204c0a:	f4a6                	sd	s1,104(sp)
    80204c0c:	f0ca                	sd	s2,96(sp)
    80204c0e:	ecce                	sd	s3,88(sp)
    80204c10:	e8d2                	sd	s4,80(sp)
    80204c12:	e4d6                	sd	s5,72(sp)
    80204c14:	e0da                	sd	s6,64(sp)
    80204c16:	fc5e                	sd	s7,56(sp)
    80204c18:	f862                	sd	s8,48(sp)
    80204c1a:	f466                	sd	s9,40(sp)
    80204c1c:	f06a                	sd	s10,32(sp)
    80204c1e:	ec6e                	sd	s11,24(sp)
    80204c20:	0100                	addi	s0,sp,128
    80204c22:	89aa                	mv	s3,a0
    80204c24:	00853b83          	ld	s7,8(a0)
    80204c28:	062bdc83          	lhu	s9,98(s7)
    80204c2c:	00bc8d33          	add	s10,s9,a1
    80204c30:	452d                	li	a0,11
    80204c32:	13a56463          	bltu	a0,s10,80204d5a <.LBB60_18>
    80204c36:	892e                	mv	s2,a1
    80204c38:	0189bb03          	ld	s6,24(s3)
    80204c3c:	062b5503          	lhu	a0,98(s6)
    80204c40:	12b56c63          	bltu	a0,a1,80204d78 <.LBB60_20>
    80204c44:	41250ab3          	sub	s5,a0,s2
    80204c48:	07ab9123          	sh	s10,98(s7)
    80204c4c:	075b1123          	sh	s5,98(s6)
    80204c50:	fff90593          	addi	a1,s2,-1
    80204c54:	008b0493          	addi	s1,s6,8
    80204c58:	00359613          	slli	a2,a1,0x3
    80204c5c:	0309b503          	ld	a0,48(s3)
    80204c60:	0289b683          	ld	a3,40(s3)
    80204c64:	00c48733          	add	a4,s1,a2
    80204c68:	6318                	ld	a4,0(a4)
    80204c6a:	050e                	slli	a0,a0,0x3
    80204c6c:	9536                	add	a0,a0,a3
    80204c6e:	6514                	ld	a3,8(a0)
    80204c70:	e518                	sd	a4,8(a0)
    80204c72:	008b8513          	addi	a0,s7,8
    80204c76:	003c9713          	slli	a4,s9,0x3
    80204c7a:	f8e43423          	sd	a4,-120(s0)
    80204c7e:	972a                	add	a4,a4,a0
    80204c80:	001c8d93          	addi	s11,s9,1
    80204c84:	41bd07b3          	sub	a5,s10,s11
    80204c88:	e314                	sd	a3,0(a4)
    80204c8a:	10f59063          	bne	a1,a5,80204d8a <.LBB60_22>
    80204c8e:	003d9c13          	slli	s8,s11,0x3
    80204c92:	9562                	add	a0,a0,s8
    80204c94:	85a6                	mv	a1,s1
    80204c96:	0001a097          	auipc	ra,0x1a
    80204c9a:	734080e7          	jalr	1844(ra) # 8021f3ca <memcpy>
    80204c9e:	00391a13          	slli	s4,s2,0x3
    80204ca2:	014485b3          	add	a1,s1,s4
    80204ca6:	f9543823          	sd	s5,-112(s0)
    80204caa:	0a8e                	slli	s5,s5,0x3
    80204cac:	8526                	mv	a0,s1
    80204cae:	8656                	mv	a2,s5
    80204cb0:	0001a097          	auipc	ra,0x1a
    80204cb4:	450080e7          	jalr	1104(ra) # 8021f100 <memmove>
    80204cb8:	0009b583          	ld	a1,0(s3)
    80204cbc:	0109b503          	ld	a0,16(s3)
    80204cc0:	cdad                	beqz	a1,80204d3a <_ZN5alloc11collections5btree4node29BalancingContext$LT$K$C$V$GT$16bulk_steal_right17h8ea0b4ffecc2713cE+0x136>
    80204cc2:	cd69                	beqz	a0,80204d9c <.LBB60_24>
    80204cc4:	068b0493          	addi	s1,s6,104
    80204cc8:	018b8533          	add	a0,s7,s8
    80204ccc:	06850513          	addi	a0,a0,104
    80204cd0:	85a6                	mv	a1,s1
    80204cd2:	8652                	mv	a2,s4
    80204cd4:	0001a097          	auipc	ra,0x1a
    80204cd8:	6f6080e7          	jalr	1782(ra) # 8021f3ca <memcpy>
    80204cdc:	014485b3          	add	a1,s1,s4
    80204ce0:	008a8613          	addi	a2,s5,8
    80204ce4:	8526                	mv	a0,s1
    80204ce6:	0001a097          	auipc	ra,0x1a
    80204cea:	41a080e7          	jalr	1050(ra) # 8021f100 <memmove>
    80204cee:	03acf163          	bgeu	s9,s10,80204d10 <_ZN5alloc11collections5btree4node29BalancingContext$LT$K$C$V$GT$16bulk_steal_right17h8ea0b4ffecc2713cE+0x10c>
    80204cf2:	f8843503          	ld	a0,-120(s0)
    80204cf6:	955e                	add	a0,a0,s7
    80204cf8:	07050513          	addi	a0,a0,112
    80204cfc:	610c                	ld	a1,0(a0)
    80204cfe:	07b59023          	sh	s11,96(a1)
    80204d02:	0d85                	addi	s11,s11,1
    80204d04:	0175b023          	sd	s7,0(a1)
    80204d08:	197d                	addi	s2,s2,-1
    80204d0a:	0521                	addi	a0,a0,8
    80204d0c:	fe0918e3          	bnez	s2,80204cfc <_ZN5alloc11collections5btree4node29BalancingContext$LT$K$C$V$GT$16bulk_steal_right17h8ea0b4ffecc2713cE+0xf8>
    80204d10:	557d                	li	a0,-1
    80204d12:	f9043583          	ld	a1,-112(s0)
    80204d16:	02a58363          	beq	a1,a0,80204d3c <_ZN5alloc11collections5btree4node29BalancingContext$LT$K$C$V$GT$16bulk_steal_right17h8ea0b4ffecc2713cE+0x138>
    80204d1a:	4581                	li	a1,0
    80204d1c:	f9043503          	ld	a0,-112(s0)
    80204d20:	0505                	addi	a0,a0,1
    80204d22:	6090                	ld	a2,0(s1)
    80204d24:	00158693          	addi	a3,a1,1
    80204d28:	01663023          	sd	s6,0(a2)
    80204d2c:	06b61023          	sh	a1,96(a2)
    80204d30:	04a1                	addi	s1,s1,8
    80204d32:	85b6                	mv	a1,a3
    80204d34:	fed517e3          	bne	a0,a3,80204d22 <_ZN5alloc11collections5btree4node29BalancingContext$LT$K$C$V$GT$16bulk_steal_right17h8ea0b4ffecc2713cE+0x11e>
    80204d38:	a011                	j	80204d3c <_ZN5alloc11collections5btree4node29BalancingContext$LT$K$C$V$GT$16bulk_steal_right17h8ea0b4ffecc2713cE+0x138>
    80204d3a:	e12d                	bnez	a0,80204d9c <.LBB60_24>
    80204d3c:	70e6                	ld	ra,120(sp)
    80204d3e:	7446                	ld	s0,112(sp)
    80204d40:	74a6                	ld	s1,104(sp)
    80204d42:	7906                	ld	s2,96(sp)
    80204d44:	69e6                	ld	s3,88(sp)
    80204d46:	6a46                	ld	s4,80(sp)
    80204d48:	6aa6                	ld	s5,72(sp)
    80204d4a:	6b06                	ld	s6,64(sp)
    80204d4c:	7be2                	ld	s7,56(sp)
    80204d4e:	7c42                	ld	s8,48(sp)
    80204d50:	7ca2                	ld	s9,40(sp)
    80204d52:	7d02                	ld	s10,32(sp)
    80204d54:	6de2                	ld	s11,24(sp)
    80204d56:	6109                	addi	sp,sp,128
    80204d58:	8082                	ret

0000000080204d5a <.LBB60_18>:
    80204d5a:	0001b517          	auipc	a0,0x1b
    80204d5e:	65650513          	addi	a0,a0,1622 # 802203b0 <.Lanon.d6099a4703f55f35884a06451ebc7765.26>

0000000080204d62 <.LBB60_19>:
    80204d62:	0001b617          	auipc	a2,0x1b
    80204d66:	68660613          	addi	a2,a2,1670 # 802203e8 <.Lanon.d6099a4703f55f35884a06451ebc7765.27>
    80204d6a:	03200593          	li	a1,50
    80204d6e:	00017097          	auipc	ra,0x17
    80204d72:	420080e7          	jalr	1056(ra) # 8021c18e <_ZN4core9panicking5panic17h183aba44d01f42adE>
	...

0000000080204d78 <.LBB60_20>:
    80204d78:	0001b517          	auipc	a0,0x1b
    80204d7c:	68850513          	addi	a0,a0,1672 # 80220400 <.Lanon.d6099a4703f55f35884a06451ebc7765.28>

0000000080204d80 <.LBB60_21>:
    80204d80:	0001b617          	auipc	a2,0x1b
    80204d84:	6a860613          	addi	a2,a2,1704 # 80220428 <.Lanon.d6099a4703f55f35884a06451ebc7765.29>
    80204d88:	a015                	j	80204dac <.LBB60_25+0x8>

0000000080204d8a <.LBB60_22>:
    80204d8a:	0001b517          	auipc	a0,0x1b
    80204d8e:	49650513          	addi	a0,a0,1174 # 80220220 <.Lanon.d6099a4703f55f35884a06451ebc7765.14>

0000000080204d92 <.LBB60_23>:
    80204d92:	0001b617          	auipc	a2,0x1b
    80204d96:	4b660613          	addi	a2,a2,1206 # 80220248 <.Lanon.d6099a4703f55f35884a06451ebc7765.15>
    80204d9a:	a809                	j	80204dac <.LBB60_25+0x8>

0000000080204d9c <.LBB60_24>:
    80204d9c:	0001b517          	auipc	a0,0x1b
    80204da0:	5d450513          	addi	a0,a0,1492 # 80220370 <.Lanon.d6099a4703f55f35884a06451ebc7765.24>

0000000080204da4 <.LBB60_25>:
    80204da4:	0001b617          	auipc	a2,0x1b
    80204da8:	69c60613          	addi	a2,a2,1692 # 80220440 <.Lanon.d6099a4703f55f35884a06451ebc7765.30>
    80204dac:	02800593          	li	a1,40
    80204db0:	00017097          	auipc	ra,0x17
    80204db4:	3de080e7          	jalr	990(ra) # 8021c18e <_ZN4core9panicking5panic17h183aba44d01f42adE>
	...

0000000080204dba <_ZN5alloc11collections5btree4node29BalancingContext$LT$K$C$V$GT$21merge_tracking_parent17h45d5c670e624ba2aE>:
    80204dba:	7135                	addi	sp,sp,-160
    80204dbc:	ed06                	sd	ra,152(sp)
    80204dbe:	e922                	sd	s0,144(sp)
    80204dc0:	e526                	sd	s1,136(sp)
    80204dc2:	e14a                	sd	s2,128(sp)
    80204dc4:	fcce                	sd	s3,120(sp)
    80204dc6:	f8d2                	sd	s4,112(sp)
    80204dc8:	f4d6                	sd	s5,104(sp)
    80204dca:	f0da                	sd	s6,96(sp)
    80204dcc:	ecde                	sd	s7,88(sp)
    80204dce:	e8e2                	sd	s8,80(sp)
    80204dd0:	e4e6                	sd	s9,72(sp)
    80204dd2:	e0ea                	sd	s10,64(sp)
    80204dd4:	fc6e                	sd	s11,56(sp)
    80204dd6:	1100                	addi	s0,sp,160
    80204dd8:	00853b03          	ld	s6,8(a0)
    80204ddc:	01853c03          	ld	s8,24(a0)
    80204de0:	062b5a03          	lhu	s4,98(s6)
    80204de4:	062c5d03          	lhu	s10,98(s8)
    80204de8:	001a0493          	addi	s1,s4,1
    80204dec:	01a486b3          	add	a3,s1,s10
    80204df0:	45ad                	li	a1,11
    80204df2:	14d5e963          	bltu	a1,a3,80204f44 <.LBB63_10>
    80204df6:	02853b83          	ld	s7,40(a0)
    80204dfa:	710c                	ld	a1,32(a0)
    80204dfc:	f8b43423          	sd	a1,-120(s0)
    80204e00:	7910                	ld	a2,48(a0)
    80204e02:	062bd983          	lhu	s3,98(s7)
    80204e06:	f6d43c23          	sd	a3,-136(s0)
    80204e0a:	06db1123          	sh	a3,98(s6)
    80204e0e:	008b8593          	addi	a1,s7,8
    80204e12:	00361913          	slli	s2,a2,0x3
    80204e16:	01258533          	add	a0,a1,s2
    80204e1a:	6114                	ld	a3,0(a0)
    80204e1c:	f8d43823          	sd	a3,-112(s0)
    80204e20:	00160d93          	addi	s11,a2,1
    80204e24:	003d9c93          	slli	s9,s11,0x3
    80204e28:	95e6                	add	a1,a1,s9
    80204e2a:	fff64613          	not	a2,a2
    80204e2e:	964e                	add	a2,a2,s3
    80204e30:	00361a93          	slli	s5,a2,0x3
    80204e34:	8656                	mv	a2,s5
    80204e36:	0001a097          	auipc	ra,0x1a
    80204e3a:	2ca080e7          	jalr	714(ra) # 8021f100 <memmove>
    80204e3e:	008b0513          	addi	a0,s6,8
    80204e42:	f9443023          	sd	s4,-128(s0)
    80204e46:	003a1593          	slli	a1,s4,0x3
    80204e4a:	f6b43423          	sd	a1,-152(s0)
    80204e4e:	95aa                	add	a1,a1,a0
    80204e50:	f9043603          	ld	a2,-112(s0)
    80204e54:	e190                	sd	a2,0(a1)
    80204e56:	f9843823          	sd	s8,-112(s0)
    80204e5a:	008c0593          	addi	a1,s8,8
    80204e5e:	00349c13          	slli	s8,s1,0x3
    80204e62:	9562                	add	a0,a0,s8
    80204e64:	f7a43823          	sd	s10,-144(s0)
    80204e68:	003d1a13          	slli	s4,s10,0x3
    80204e6c:	8652                	mv	a2,s4
    80204e6e:	0001a097          	auipc	ra,0x1a
    80204e72:	55c080e7          	jalr	1372(ra) # 8021f3ca <memcpy>
    80204e76:	068b8593          	addi	a1,s7,104
    80204e7a:	01958533          	add	a0,a1,s9
    80204e7e:	95ca                	add	a1,a1,s2
    80204e80:	05c1                	addi	a1,a1,16
    80204e82:	8656                	mv	a2,s5
    80204e84:	0001a097          	auipc	ra,0x1a
    80204e88:	27c080e7          	jalr	636(ra) # 8021f100 <memmove>
    80204e8c:	033df163          	bgeu	s11,s3,80204eae <_ZN5alloc11collections5btree4node29BalancingContext$LT$K$C$V$GT$21merge_tracking_parent17h45d5c670e624ba2aE+0xf4>
    80204e90:	01790533          	add	a0,s2,s7
    80204e94:	07050513          	addi	a0,a0,112
    80204e98:	610c                	ld	a1,0(a0)
    80204e9a:	001d8613          	addi	a2,s11,1
    80204e9e:	0175b023          	sd	s7,0(a1)
    80204ea2:	07b59023          	sh	s11,96(a1)
    80204ea6:	0521                	addi	a0,a0,8
    80204ea8:	8db2                	mv	s11,a2
    80204eaa:	fec997e3          	bne	s3,a2,80204e98 <_ZN5alloc11collections5btree4node29BalancingContext$LT$K$C$V$GT$21merge_tracking_parent17h45d5c670e624ba2aE+0xde>
    80204eae:	062b9503          	lh	a0,98(s7)
    80204eb2:	357d                	addiw	a0,a0,-1
    80204eb4:	06ab9123          	sh	a0,98(s7)
    80204eb8:	4505                	li	a0,1
    80204eba:	06800593          	li	a1,104
    80204ebe:	f8843903          	ld	s2,-120(s0)
    80204ec2:	05257963          	bgeu	a0,s2,80204f14 <_ZN5alloc11collections5btree4node29BalancingContext$LT$K$C$V$GT$21merge_tracking_parent17h45d5c670e624ba2aE+0x15a>
    80204ec6:	f9043503          	ld	a0,-112(s0)
    80204eca:	06850593          	addi	a1,a0,104
    80204ece:	018b0533          	add	a0,s6,s8
    80204ed2:	06850513          	addi	a0,a0,104
    80204ed6:	008a0613          	addi	a2,s4,8
    80204eda:	0001a097          	auipc	ra,0x1a
    80204ede:	4f0080e7          	jalr	1264(ra) # 8021f3ca <memcpy>
    80204ee2:	0c800593          	li	a1,200
    80204ee6:	f8043503          	ld	a0,-128(s0)
    80204eea:	f7843603          	ld	a2,-136(s0)
    80204eee:	02c57363          	bgeu	a0,a2,80204f14 <_ZN5alloc11collections5btree4node29BalancingContext$LT$K$C$V$GT$21merge_tracking_parent17h45d5c670e624ba2aE+0x15a>
    80204ef2:	f7043503          	ld	a0,-144(s0)
    80204ef6:	0505                	addi	a0,a0,1
    80204ef8:	f6843603          	ld	a2,-152(s0)
    80204efc:	965a                	add	a2,a2,s6
    80204efe:	07060613          	addi	a2,a2,112
    80204f02:	6214                	ld	a3,0(a2)
    80204f04:	06969023          	sh	s1,96(a3)
    80204f08:	0485                	addi	s1,s1,1
    80204f0a:	0166b023          	sd	s6,0(a3)
    80204f0e:	157d                	addi	a0,a0,-1
    80204f10:	0621                	addi	a2,a2,8
    80204f12:	f965                	bnez	a0,80204f02 <_ZN5alloc11collections5btree4node29BalancingContext$LT$K$C$V$GT$21merge_tracking_parent17h45d5c670e624ba2aE+0x148>
    80204f14:	4621                	li	a2,8
    80204f16:	f9043503          	ld	a0,-112(s0)
    80204f1a:	00010097          	auipc	ra,0x10
    80204f1e:	7c2080e7          	jalr	1986(ra) # 802156dc <__rust_dealloc>
    80204f22:	854a                	mv	a0,s2
    80204f24:	85de                	mv	a1,s7
    80204f26:	60ea                	ld	ra,152(sp)
    80204f28:	644a                	ld	s0,144(sp)
    80204f2a:	64aa                	ld	s1,136(sp)
    80204f2c:	690a                	ld	s2,128(sp)
    80204f2e:	79e6                	ld	s3,120(sp)
    80204f30:	7a46                	ld	s4,112(sp)
    80204f32:	7aa6                	ld	s5,104(sp)
    80204f34:	7b06                	ld	s6,96(sp)
    80204f36:	6be6                	ld	s7,88(sp)
    80204f38:	6c46                	ld	s8,80(sp)
    80204f3a:	6ca6                	ld	s9,72(sp)
    80204f3c:	6d06                	ld	s10,64(sp)
    80204f3e:	7de2                	ld	s11,56(sp)
    80204f40:	610d                	addi	sp,sp,160
    80204f42:	8082                	ret

0000000080204f44 <.LBB63_10>:
    80204f44:	0001b517          	auipc	a0,0x1b
    80204f48:	5c450513          	addi	a0,a0,1476 # 80220508 <.Lanon.d6099a4703f55f35884a06451ebc7765.33>

0000000080204f4c <.LBB63_11>:
    80204f4c:	0001b617          	auipc	a2,0x1b
    80204f50:	5ec60613          	addi	a2,a2,1516 # 80220538 <.Lanon.d6099a4703f55f35884a06451ebc7765.34>
    80204f54:	02a00593          	li	a1,42
    80204f58:	00017097          	auipc	ra,0x17
    80204f5c:	236080e7          	jalr	566(ra) # 8021c18e <_ZN4core9panicking5panic17h183aba44d01f42adE>
	...

0000000080204f62 <_ZN5alloc11collections5btree4node29BalancingContext$LT$K$C$V$GT$21merge_tracking_parent17h911905a2e972519bE>:
    80204f62:	7171                	addi	sp,sp,-176
    80204f64:	f506                	sd	ra,168(sp)
    80204f66:	f122                	sd	s0,160(sp)
    80204f68:	ed26                	sd	s1,152(sp)
    80204f6a:	e94a                	sd	s2,144(sp)
    80204f6c:	e54e                	sd	s3,136(sp)
    80204f6e:	e152                	sd	s4,128(sp)
    80204f70:	fcd6                	sd	s5,120(sp)
    80204f72:	f8da                	sd	s6,112(sp)
    80204f74:	f4de                	sd	s7,104(sp)
    80204f76:	f0e2                	sd	s8,96(sp)
    80204f78:	ece6                	sd	s9,88(sp)
    80204f7a:	e8ea                	sd	s10,80(sp)
    80204f7c:	e4ee                	sd	s11,72(sp)
    80204f7e:	1900                	addi	s0,sp,176
    80204f80:	00853b03          	ld	s6,8(a0)
    80204f84:	01853903          	ld	s2,24(a0)
    80204f88:	0bab5a03          	lhu	s4,186(s6)
    80204f8c:	0ba95c83          	lhu	s9,186(s2)
    80204f90:	001a0493          	addi	s1,s4,1
    80204f94:	019486b3          	add	a3,s1,s9
    80204f98:	45ad                	li	a1,11
    80204f9a:	18d5ec63          	bltu	a1,a3,80205132 <.LBB64_10>
    80204f9e:	02853b83          	ld	s7,40(a0)
    80204fa2:	710c                	ld	a1,32(a0)
    80204fa4:	f8b43823          	sd	a1,-112(s0)
    80204fa8:	7910                	ld	a2,48(a0)
    80204faa:	0babd983          	lhu	s3,186(s7)
    80204fae:	f6d43023          	sd	a3,-160(s0)
    80204fb2:	0adb1d23          	sh	a3,186(s6)
    80204fb6:	008b8593          	addi	a1,s7,8
    80204fba:	00361d93          	slli	s11,a2,0x3
    80204fbe:	01b58533          	add	a0,a1,s11
    80204fc2:	00053a83          	ld	s5,0(a0)
    80204fc6:	00160c13          	addi	s8,a2,1
    80204fca:	003c1693          	slli	a3,s8,0x3
    80204fce:	f8d43023          	sd	a3,-128(s0)
    80204fd2:	95b6                	add	a1,a1,a3
    80204fd4:	fff64613          	not	a2,a2
    80204fd8:	964e                	add	a2,a2,s3
    80204fda:	060e                	slli	a2,a2,0x3
    80204fdc:	f6c43c23          	sd	a2,-136(s0)
    80204fe0:	0001a097          	auipc	ra,0x1a
    80204fe4:	120080e7          	jalr	288(ra) # 8021f100 <memmove>
    80204fe8:	008b0513          	addi	a0,s6,8
    80204fec:	f7443423          	sd	s4,-152(s0)
    80204ff0:	0a0e                	slli	s4,s4,0x3
    80204ff2:	014505b3          	add	a1,a0,s4
    80204ff6:	0155b023          	sd	s5,0(a1)
    80204ffa:	00890593          	addi	a1,s2,8
    80204ffe:	00349a93          	slli	s5,s1,0x3
    80205002:	9556                	add	a0,a0,s5
    80205004:	f5943c23          	sd	s9,-168(s0)
    80205008:	003c9d13          	slli	s10,s9,0x3
    8020500c:	866a                	mv	a2,s10
    8020500e:	0001a097          	auipc	ra,0x1a
    80205012:	3bc080e7          	jalr	956(ra) # 8021f3ca <memcpy>
    80205016:	060b8593          	addi	a1,s7,96
    8020501a:	01b58533          	add	a0,a1,s11
    8020501e:	f9243423          	sd	s2,-120(s0)
    80205022:	6110                	ld	a2,0(a0)
    80205024:	f6c43823          	sd	a2,-144(s0)
    80205028:	f8043c83          	ld	s9,-128(s0)
    8020502c:	95e6                	add	a1,a1,s9
    8020502e:	f7843903          	ld	s2,-136(s0)
    80205032:	864a                	mv	a2,s2
    80205034:	0001a097          	auipc	ra,0x1a
    80205038:	0cc080e7          	jalr	204(ra) # 8021f100 <memmove>
    8020503c:	060b0513          	addi	a0,s6,96
    80205040:	f5443823          	sd	s4,-176(s0)
    80205044:	014505b3          	add	a1,a0,s4
    80205048:	8a6a                	mv	s4,s10
    8020504a:	f7043603          	ld	a2,-144(s0)
    8020504e:	e190                	sd	a2,0(a1)
    80205050:	f8843583          	ld	a1,-120(s0)
    80205054:	8d56                	mv	s10,s5
    80205056:	8aee                	mv	s5,s11
    80205058:	8dae                	mv	s11,a1
    8020505a:	06058593          	addi	a1,a1,96
    8020505e:	956a                	add	a0,a0,s10
    80205060:	8652                	mv	a2,s4
    80205062:	0001a097          	auipc	ra,0x1a
    80205066:	368080e7          	jalr	872(ra) # 8021f3ca <memcpy>
    8020506a:	0c0b8593          	addi	a1,s7,192
    8020506e:	01958533          	add	a0,a1,s9
    80205072:	95d6                	add	a1,a1,s5
    80205074:	05c1                	addi	a1,a1,16
    80205076:	864a                	mv	a2,s2
    80205078:	0001a097          	auipc	ra,0x1a
    8020507c:	088080e7          	jalr	136(ra) # 8021f100 <memmove>
    80205080:	033c7163          	bgeu	s8,s3,802050a2 <_ZN5alloc11collections5btree4node29BalancingContext$LT$K$C$V$GT$21merge_tracking_parent17h911905a2e972519bE+0x140>
    80205084:	017a8533          	add	a0,s5,s7
    80205088:	0c850513          	addi	a0,a0,200
    8020508c:	610c                	ld	a1,0(a0)
    8020508e:	001c0613          	addi	a2,s8,1
    80205092:	0175b023          	sd	s7,0(a1)
    80205096:	0b859c23          	sh	s8,184(a1)
    8020509a:	0521                	addi	a0,a0,8
    8020509c:	8c32                	mv	s8,a2
    8020509e:	fec997e3          	bne	s3,a2,8020508c <_ZN5alloc11collections5btree4node29BalancingContext$LT$K$C$V$GT$21merge_tracking_parent17h911905a2e972519bE+0x12a>
    802050a2:	0bab9503          	lh	a0,186(s7)
    802050a6:	357d                	addiw	a0,a0,-1
    802050a8:	0aab9d23          	sh	a0,186(s7)
    802050ac:	4505                	li	a0,1
    802050ae:	0c000593          	li	a1,192
    802050b2:	f9043983          	ld	s3,-112(s0)
    802050b6:	05357763          	bgeu	a0,s3,80205104 <_ZN5alloc11collections5btree4node29BalancingContext$LT$K$C$V$GT$21merge_tracking_parent17h911905a2e972519bE+0x1a2>
    802050ba:	0c0d8593          	addi	a1,s11,192
    802050be:	01ab0533          	add	a0,s6,s10
    802050c2:	0c050513          	addi	a0,a0,192
    802050c6:	008a0613          	addi	a2,s4,8
    802050ca:	0001a097          	auipc	ra,0x1a
    802050ce:	300080e7          	jalr	768(ra) # 8021f3ca <memcpy>
    802050d2:	12000593          	li	a1,288
    802050d6:	f6843503          	ld	a0,-152(s0)
    802050da:	f6043603          	ld	a2,-160(s0)
    802050de:	02c57363          	bgeu	a0,a2,80205104 <_ZN5alloc11collections5btree4node29BalancingContext$LT$K$C$V$GT$21merge_tracking_parent17h911905a2e972519bE+0x1a2>
    802050e2:	f5843503          	ld	a0,-168(s0)
    802050e6:	0505                	addi	a0,a0,1
    802050e8:	f5043603          	ld	a2,-176(s0)
    802050ec:	965a                	add	a2,a2,s6
    802050ee:	0c860613          	addi	a2,a2,200
    802050f2:	6214                	ld	a3,0(a2)
    802050f4:	0a969c23          	sh	s1,184(a3)
    802050f8:	0485                	addi	s1,s1,1
    802050fa:	0166b023          	sd	s6,0(a3)
    802050fe:	157d                	addi	a0,a0,-1
    80205100:	0621                	addi	a2,a2,8
    80205102:	f965                	bnez	a0,802050f2 <_ZN5alloc11collections5btree4node29BalancingContext$LT$K$C$V$GT$21merge_tracking_parent17h911905a2e972519bE+0x190>
    80205104:	4621                	li	a2,8
    80205106:	856e                	mv	a0,s11
    80205108:	00010097          	auipc	ra,0x10
    8020510c:	5d4080e7          	jalr	1492(ra) # 802156dc <__rust_dealloc>
    80205110:	854e                	mv	a0,s3
    80205112:	85de                	mv	a1,s7
    80205114:	70aa                	ld	ra,168(sp)
    80205116:	740a                	ld	s0,160(sp)
    80205118:	64ea                	ld	s1,152(sp)
    8020511a:	694a                	ld	s2,144(sp)
    8020511c:	69aa                	ld	s3,136(sp)
    8020511e:	6a0a                	ld	s4,128(sp)
    80205120:	7ae6                	ld	s5,120(sp)
    80205122:	7b46                	ld	s6,112(sp)
    80205124:	7ba6                	ld	s7,104(sp)
    80205126:	7c06                	ld	s8,96(sp)
    80205128:	6ce6                	ld	s9,88(sp)
    8020512a:	6d46                	ld	s10,80(sp)
    8020512c:	6da6                	ld	s11,72(sp)
    8020512e:	614d                	addi	sp,sp,176
    80205130:	8082                	ret

0000000080205132 <.LBB64_10>:
    80205132:	0001b517          	auipc	a0,0x1b
    80205136:	3d650513          	addi	a0,a0,982 # 80220508 <.Lanon.d6099a4703f55f35884a06451ebc7765.33>

000000008020513a <.LBB64_11>:
    8020513a:	0001b617          	auipc	a2,0x1b
    8020513e:	3fe60613          	addi	a2,a2,1022 # 80220538 <.Lanon.d6099a4703f55f35884a06451ebc7765.34>
    80205142:	02a00593          	li	a1,42
    80205146:	00017097          	auipc	ra,0x17
    8020514a:	048080e7          	jalr	72(ra) # 8021c18e <_ZN4core9panicking5panic17h183aba44d01f42adE>
	...

0000000080205150 <_ZN5alloc11collections5btree4node29BalancingContext$LT$K$C$V$GT$25merge_tracking_child_edge17h32ad46fa29e14071E>:
    80205150:	7131                	addi	sp,sp,-192
    80205152:	fd06                	sd	ra,184(sp)
    80205154:	f922                	sd	s0,176(sp)
    80205156:	f526                	sd	s1,168(sp)
    80205158:	f14a                	sd	s2,160(sp)
    8020515a:	ed4e                	sd	s3,152(sp)
    8020515c:	e952                	sd	s4,144(sp)
    8020515e:	e556                	sd	s5,136(sp)
    80205160:	e15a                	sd	s6,128(sp)
    80205162:	fcde                	sd	s7,120(sp)
    80205164:	f8e2                	sd	s8,112(sp)
    80205166:	f4e6                	sd	s9,104(sp)
    80205168:	f0ea                	sd	s10,96(sp)
    8020516a:	ecee                	sd	s11,88(sp)
    8020516c:	0180                	addi	s0,sp,192
    8020516e:	6584                	ld	s1,8(a1)
    80205170:	0185bb03          	ld	s6,24(a1)
    80205174:	0624d903          	lhu	s2,98(s1)
    80205178:	062b5d83          	lhu	s11,98(s6)
    8020517c:	874a                	mv	a4,s2
    8020517e:	c211                	beqz	a2,80205182 <_ZN5alloc11collections5btree4node29BalancingContext$LT$K$C$V$GT$25merge_tracking_child_edge17h32ad46fa29e14071E+0x32>
    80205180:	876e                	mv	a4,s11
    80205182:	18d76963          	bltu	a4,a3,80205314 <.LBB66_17>
    80205186:	f8c43423          	sd	a2,-120(s0)
    8020518a:	f6a43c23          	sd	a0,-136(s0)
    8020518e:	f8d43023          	sd	a3,-128(s0)
    80205192:	00190c93          	addi	s9,s2,1
    80205196:	01bc86b3          	add	a3,s9,s11
    8020519a:	452d                	li	a0,11
    8020519c:	18d56b63          	bltu	a0,a3,80205332 <.LBB66_19>
    802051a0:	0285b983          	ld	s3,40(a1)
    802051a4:	6188                	ld	a0,0(a1)
    802051a6:	f6a43023          	sd	a0,-160(s0)
    802051aa:	7188                	ld	a0,32(a1)
    802051ac:	f6a43423          	sd	a0,-152(s0)
    802051b0:	7990                	ld	a2,48(a1)
    802051b2:	0629da03          	lhu	s4,98(s3)
    802051b6:	f4d43823          	sd	a3,-176(s0)
    802051ba:	06d49123          	sh	a3,98(s1)
    802051be:	00898593          	addi	a1,s3,8
    802051c2:	00361a93          	slli	s5,a2,0x3
    802051c6:	01558533          	add	a0,a1,s5
    802051ca:	6114                	ld	a3,0(a0)
    802051cc:	f8d43823          	sd	a3,-112(s0)
    802051d0:	00160c13          	addi	s8,a2,1
    802051d4:	003c1d13          	slli	s10,s8,0x3
    802051d8:	95ea                	add	a1,a1,s10
    802051da:	fff64613          	not	a2,a2
    802051de:	9652                	add	a2,a2,s4
    802051e0:	00361b93          	slli	s7,a2,0x3
    802051e4:	865e                	mv	a2,s7
    802051e6:	0001a097          	auipc	ra,0x1a
    802051ea:	f1a080e7          	jalr	-230(ra) # 8021f100 <memmove>
    802051ee:	00848513          	addi	a0,s1,8
    802051f2:	f5243c23          	sd	s2,-168(s0)
    802051f6:	00391593          	slli	a1,s2,0x3
    802051fa:	f4b43423          	sd	a1,-184(s0)
    802051fe:	95aa                	add	a1,a1,a0
    80205200:	f9043603          	ld	a2,-112(s0)
    80205204:	e190                	sd	a2,0(a1)
    80205206:	f9643823          	sd	s6,-112(s0)
    8020520a:	008b0593          	addi	a1,s6,8
    8020520e:	f7943823          	sd	s9,-144(s0)
    80205212:	003c9913          	slli	s2,s9,0x3
    80205216:	954a                	add	a0,a0,s2
    80205218:	8cee                	mv	s9,s11
    8020521a:	003d9b13          	slli	s6,s11,0x3
    8020521e:	865a                	mv	a2,s6
    80205220:	0001a097          	auipc	ra,0x1a
    80205224:	1aa080e7          	jalr	426(ra) # 8021f3ca <memcpy>
    80205228:	06898593          	addi	a1,s3,104
    8020522c:	01a58533          	add	a0,a1,s10
    80205230:	95d6                	add	a1,a1,s5
    80205232:	05c1                	addi	a1,a1,16
    80205234:	865e                	mv	a2,s7
    80205236:	0001a097          	auipc	ra,0x1a
    8020523a:	eca080e7          	jalr	-310(ra) # 8021f100 <memmove>
    8020523e:	034c7163          	bgeu	s8,s4,80205260 <_ZN5alloc11collections5btree4node29BalancingContext$LT$K$C$V$GT$25merge_tracking_child_edge17h32ad46fa29e14071E+0x110>
    80205242:	013a8533          	add	a0,s5,s3
    80205246:	07050513          	addi	a0,a0,112
    8020524a:	610c                	ld	a1,0(a0)
    8020524c:	001c0613          	addi	a2,s8,1
    80205250:	0135b023          	sd	s3,0(a1)
    80205254:	07859023          	sh	s8,96(a1)
    80205258:	0521                	addi	a0,a0,8
    8020525a:	8c32                	mv	s8,a2
